
test_O1.elf:     file format elf32-littleriscv


Disassembly of section .text:

00010000 <_start>:
   10000:	00006117          	auipc	sp,0x6
   10004:	9c010113          	addi	sp,sp,-1600 # 159c0 <__stack_top>
   10008:	00005297          	auipc	t0,0x5
   1000c:	9a028293          	addi	t0,t0,-1632 # 149a8 <buffer>
   10010:	00005317          	auipc	t1,0x5
   10014:	9a430313          	addi	t1,t1,-1628 # 149b4 <__bss_end>
   10018:	0062d863          	bge	t0,t1,10028 <_start+0x28>
   1001c:	0002a023          	sw	zero,0(t0)
   10020:	00428293          	addi	t0,t0,4
   10024:	ff5ff06f          	j	10018 <_start+0x18>
   10028:	1b4000ef          	jal	101dc <main>
   1002c:	05d00893          	li	a7,93
   10030:	00000513          	li	a0,0
   10034:	00000073          	ecall
   10038:	0000006f          	j	10038 <_start+0x38>

0001003c <print_dec>:
   1003c:	fe010113          	addi	sp,sp,-32
   10040:	00a00793          	li	a5,10
   10044:	00f10fa3          	sb	a5,31(sp)
   10048:	0a051c63          	bnez	a0,10100 <print_dec+0xc4>
   1004c:	03000793          	li	a5,48
   10050:	00f10f23          	sb	a5,30(sp)
   10054:	01d10313          	addi	t1,sp,29
   10058:	00130313          	addi	t1,t1,1
   1005c:	02010793          	addi	a5,sp,32
   10060:	406787b3          	sub	a5,a5,t1
   10064:	04000893          	li	a7,64
   10068:	00100513          	li	a0,1
   1006c:	006005b3          	add	a1,zero,t1
   10070:	00078613          	mv	a2,a5
   10074:	00000073          	ecall
   10078:	02010113          	addi	sp,sp,32
   1007c:	00008067          	ret
   10080:	fff70713          	addi	a4,a4,-1
   10084:	02c70063          	beq	a4,a2,100a4 <print_dec+0x68>
   10088:	00179793          	slli	a5,a5,0x1
   1008c:	00e556b3          	srl	a3,a0,a4
   10090:	0016f693          	andi	a3,a3,1
   10094:	00f6e7b3          	or	a5,a3,a5
   10098:	fef5f4e3          	bgeu	a1,a5,10080 <print_dec+0x44>
   1009c:	ff678793          	addi	a5,a5,-10
   100a0:	fe1ff06f          	j	10080 <print_dec+0x44>
   100a4:	03078793          	addi	a5,a5,48
   100a8:	00f30023          	sb	a5,0(t1)
   100ac:	fff30313          	addi	t1,t1,-1
   100b0:	00000813          	li	a6,0
   100b4:	01f00713          	li	a4,31
   100b8:	00000793          	li	a5,0
   100bc:	00c0006f          	j	100c8 <print_dec+0x8c>
   100c0:	fff70713          	addi	a4,a4,-1
   100c4:	02c70463          	beq	a4,a2,100ec <print_dec+0xb0>
   100c8:	00179793          	slli	a5,a5,0x1
   100cc:	00e556b3          	srl	a3,a0,a4
   100d0:	0016f693          	andi	a3,a3,1
   100d4:	00f6e7b3          	or	a5,a3,a5
   100d8:	fef5f4e3          	bgeu	a1,a5,100c0 <print_dec+0x84>
   100dc:	ff678793          	addi	a5,a5,-10
   100e0:	00e896b3          	sll	a3,a7,a4
   100e4:	00d86833          	or	a6,a6,a3
   100e8:	fd9ff06f          	j	100c0 <print_dec+0x84>
   100ec:	f60806e3          	beqz	a6,10058 <print_dec+0x1c>
   100f0:	00080513          	mv	a0,a6
   100f4:	01f00713          	li	a4,31
   100f8:	00000793          	li	a5,0
   100fc:	f8dff06f          	j	10088 <print_dec+0x4c>
   10100:	01e10313          	addi	t1,sp,30
   10104:	00900593          	li	a1,9
   10108:	fff00613          	li	a2,-1
   1010c:	00100893          	li	a7,1
   10110:	fe5ff06f          	j	100f4 <print_dec+0xb8>

00010114 <mul32>:
   10114:	00050313          	mv	t1,a0
   10118:	00058613          	mv	a2,a1
   1011c:	00000793          	li	a5,0
   10120:	00000513          	li	a0,0
   10124:	00000593          	li	a1,0
   10128:	00135e93          	srli	t4,t1,0x1
   1012c:	01f00e13          	li	t3,31
   10130:	02000813          	li	a6,32
   10134:	02c0006f          	j	10160 <mul32+0x4c>
   10138:	40fe0733          	sub	a4,t3,a5
   1013c:	00eed733          	srl	a4,t4,a4
   10140:	00f316b3          	sll	a3,t1,a5
   10144:	00d506b3          	add	a3,a0,a3
   10148:	00a6b8b3          	sltu	a7,a3,a0
   1014c:	00e585b3          	add	a1,a1,a4
   10150:	00068513          	mv	a0,a3
   10154:	00b885b3          	add	a1,a7,a1
   10158:	00178793          	addi	a5,a5,1
   1015c:	03078263          	beq	a5,a6,10180 <mul32+0x6c>
   10160:	00f65733          	srl	a4,a2,a5
   10164:	00177713          	andi	a4,a4,1
   10168:	fe0708e3          	beqz	a4,10158 <mul32+0x44>
   1016c:	fe078713          	addi	a4,a5,-32
   10170:	fc0744e3          	bltz	a4,10138 <mul32+0x24>
   10174:	00e31733          	sll	a4,t1,a4
   10178:	00000693          	li	a3,0
   1017c:	fc9ff06f          	j	10144 <mul32+0x30>
   10180:	00008067          	ret

00010184 <memcpy>:
   10184:	02060063          	beqz	a2,101a4 <memcpy+0x20>
   10188:	00c50633          	add	a2,a0,a2
   1018c:	00050793          	mv	a5,a0
   10190:	00158593          	addi	a1,a1,1
   10194:	00178793          	addi	a5,a5,1
   10198:	fff5c703          	lbu	a4,-1(a1)
   1019c:	fee78fa3          	sb	a4,-1(a5)
   101a0:	fef618e3          	bne	a2,a5,10190 <memcpy+0xc>
   101a4:	00008067          	ret

000101a8 <__mulsi3>:
   101a8:	00050713          	mv	a4,a0
   101ac:	02058463          	beqz	a1,101d4 <__mulsi3+0x2c>
   101b0:	00000513          	li	a0,0
   101b4:	0015f793          	andi	a5,a1,1
   101b8:	40f007b3          	neg	a5,a5
   101bc:	00e7f7b3          	and	a5,a5,a4
   101c0:	00f50533          	add	a0,a0,a5
   101c4:	00171713          	slli	a4,a4,0x1
   101c8:	0015d593          	srli	a1,a1,0x1
   101cc:	fe0594e3          	bnez	a1,101b4 <__mulsi3+0xc>
   101d0:	00008067          	ret
   101d4:	00058513          	mv	a0,a1
   101d8:	00008067          	ret

000101dc <main>:
   101dc:	f8010113          	addi	sp,sp,-128
   101e0:	06112e23          	sw	ra,124(sp)
   101e4:	06812c23          	sw	s0,120(sp)
   101e8:	06912a23          	sw	s1,116(sp)
   101ec:	07212823          	sw	s2,112(sp)
   101f0:	07312623          	sw	s3,108(sp)
   101f4:	07412423          	sw	s4,104(sp)
   101f8:	07512223          	sw	s5,100(sp)
   101fc:	07612023          	sw	s6,96(sp)
   10200:	05712e23          	sw	s7,92(sp)
   10204:	05812c23          	sw	s8,88(sp)
   10208:	05912a23          	sw	s9,84(sp)
   1020c:	05a12823          	sw	s10,80(sp)
   10210:	05b12623          	sw	s11,76(sp)
   10214:	000157b7          	lui	a5,0x15
   10218:	81878793          	addi	a5,a5,-2024 # 14818 <finish_game+0x20>
   1021c:	0007a503          	lw	a0,0(a5)
   10220:	0047a583          	lw	a1,4(a5)
   10224:	0087a603          	lw	a2,8(a5)
   10228:	00c7a683          	lw	a3,12(a5)
   1022c:	0107a703          	lw	a4,16(a5)
   10230:	0147a783          	lw	a5,20(a5)
   10234:	00a12e23          	sw	a0,28(sp)
   10238:	02b12023          	sw	a1,32(sp)
   1023c:	02c12223          	sw	a2,36(sp)
   10240:	02d12423          	sw	a3,40(sp)
   10244:	02e12623          	sw	a4,44(sp)
   10248:	02f12823          	sw	a5,48(sp)
   1024c:	01c10413          	addi	s0,sp,28
   10250:	01700793          	li	a5,23
   10254:	04000893          	li	a7,64
   10258:	00100513          	li	a0,1
   1025c:	008005b3          	add	a1,zero,s0
   10260:	00078613          	mv	a2,a5
   10264:	00000073          	ecall
   10268:	000157b7          	lui	a5,0x15
   1026c:	83078793          	addi	a5,a5,-2000 # 14830 <finish_game+0x38>
   10270:	0007a303          	lw	t1,0(a5)
   10274:	0047a883          	lw	a7,4(a5)
   10278:	0087a803          	lw	a6,8(a5)
   1027c:	00c7a503          	lw	a0,12(a5)
   10280:	0107a583          	lw	a1,16(a5)
   10284:	0147a603          	lw	a2,20(a5)
   10288:	0187a683          	lw	a3,24(a5)
   1028c:	01c7a703          	lw	a4,28(a5)
   10290:	00612e23          	sw	t1,28(sp)
   10294:	03112023          	sw	a7,32(sp)
   10298:	03012223          	sw	a6,36(sp)
   1029c:	02a12423          	sw	a0,40(sp)
   102a0:	02b12623          	sw	a1,44(sp)
   102a4:	02c12823          	sw	a2,48(sp)
   102a8:	02d12a23          	sw	a3,52(sp)
   102ac:	02e12c23          	sw	a4,56(sp)
   102b0:	0207d783          	lhu	a5,32(a5)
   102b4:	02f11e23          	sh	a5,60(sp)
   102b8:	02100793          	li	a5,33
   102bc:	04000893          	li	a7,64
   102c0:	00100513          	li	a0,1
   102c4:	008005b3          	add	a1,zero,s0
   102c8:	00078613          	mv	a2,a5
   102cc:	00000073          	ecall
   102d0:	6c0000ef          	jal	10990 <get_cycles>
   102d4:	00050913          	mv	s2,a0
   102d8:	6cc000ef          	jal	109a4 <get_instret>
   102dc:	00050493          	mv	s1,a0
   102e0:	735030ef          	jal	14214 <lc3370>
   102e4:	6ac000ef          	jal	10990 <get_cycles>
   102e8:	00050993          	mv	s3,a0
   102ec:	6b8000ef          	jal	109a4 <get_instret>
   102f0:	409507b3          	sub	a5,a0,s1
   102f4:	00f12223          	sw	a5,4(sp)
   102f8:	000157b7          	lui	a5,0x15
   102fc:	85478793          	addi	a5,a5,-1964 # 14854 <finish_game+0x5c>
   10300:	0007ad03          	lw	s10,0(a5)
   10304:	0047ac83          	lw	s9,4(a5)
   10308:	01a12e23          	sw	s10,28(sp)
   1030c:	03912023          	sw	s9,32(sp)
   10310:	0087dc03          	lhu	s8,8(a5)
   10314:	03811223          	sh	s8,36(sp)
   10318:	00a7cb83          	lbu	s7,10(a5)
   1031c:	03710323          	sb	s7,38(sp)
   10320:	00a00493          	li	s1,10
   10324:	04000893          	li	a7,64
   10328:	00100513          	li	a0,1
   1032c:	008005b3          	add	a1,zero,s0
   10330:	00048613          	mv	a2,s1
   10334:	00000073          	ecall
   10338:	41298533          	sub	a0,s3,s2
   1033c:	d01ff0ef          	jal	1003c <print_dec>
   10340:	000157b7          	lui	a5,0x15
   10344:	86078793          	addi	a5,a5,-1952 # 14860 <finish_game+0x68>
   10348:	0007ab03          	lw	s6,0(a5)
   1034c:	0047aa83          	lw	s5,4(a5)
   10350:	0087aa03          	lw	s4,8(a5)
   10354:	00c7a983          	lw	s3,12(a5)
   10358:	01612e23          	sw	s6,28(sp)
   1035c:	03512023          	sw	s5,32(sp)
   10360:	03412223          	sw	s4,36(sp)
   10364:	03312423          	sw	s3,40(sp)
   10368:	0107c903          	lbu	s2,16(a5)
   1036c:	03210623          	sb	s2,44(sp)
   10370:	01000d93          	li	s11,16
   10374:	04000893          	li	a7,64
   10378:	00100513          	li	a0,1
   1037c:	008005b3          	add	a1,zero,s0
   10380:	000d8613          	mv	a2,s11
   10384:	00000073          	ecall
   10388:	00412503          	lw	a0,4(sp)
   1038c:	cb1ff0ef          	jal	1003c <print_dec>
   10390:	00911e23          	sh	s1,28(sp)
   10394:	00100793          	li	a5,1
   10398:	04000893          	li	a7,64
   1039c:	00100513          	li	a0,1
   103a0:	008005b3          	add	a1,zero,s0
   103a4:	00078613          	mv	a2,a5
   103a8:	00000073          	ecall
   103ac:	000157b7          	lui	a5,0x15
   103b0:	87478793          	addi	a5,a5,-1932 # 14874 <finish_game+0x7c>
   103b4:	0007a503          	lw	a0,0(a5)
   103b8:	0047a583          	lw	a1,4(a5)
   103bc:	0087a603          	lw	a2,8(a5)
   103c0:	00c7a683          	lw	a3,12(a5)
   103c4:	0107a703          	lw	a4,16(a5)
   103c8:	00a12e23          	sw	a0,28(sp)
   103cc:	02b12023          	sw	a1,32(sp)
   103d0:	02c12223          	sw	a2,36(sp)
   103d4:	02d12423          	sw	a3,40(sp)
   103d8:	02e12623          	sw	a4,44(sp)
   103dc:	0147d703          	lhu	a4,20(a5)
   103e0:	02e11823          	sh	a4,48(sp)
   103e4:	0167c783          	lbu	a5,22(a5)
   103e8:	02f10923          	sb	a5,50(sp)
   103ec:	01600793          	li	a5,22
   103f0:	04000893          	li	a7,64
   103f4:	00100513          	li	a0,1
   103f8:	008005b3          	add	a1,zero,s0
   103fc:	00078613          	mv	a2,a5
   10400:	00000073          	ecall
   10404:	000157b7          	lui	a5,0x15
   10408:	88c78793          	addi	a5,a5,-1908 # 1488c <finish_game+0x94>
   1040c:	0007a303          	lw	t1,0(a5)
   10410:	0047a883          	lw	a7,4(a5)
   10414:	0087a803          	lw	a6,8(a5)
   10418:	00c7a503          	lw	a0,12(a5)
   1041c:	0107a583          	lw	a1,16(a5)
   10420:	0147a603          	lw	a2,20(a5)
   10424:	0187a683          	lw	a3,24(a5)
   10428:	01c7a703          	lw	a4,28(a5)
   1042c:	00612e23          	sw	t1,28(sp)
   10430:	03112023          	sw	a7,32(sp)
   10434:	03012223          	sw	a6,36(sp)
   10438:	02a12423          	sw	a0,40(sp)
   1043c:	02b12623          	sw	a1,44(sp)
   10440:	02c12823          	sw	a2,48(sp)
   10444:	02d12a23          	sw	a3,52(sp)
   10448:	02e12c23          	sw	a4,56(sp)
   1044c:	0207c783          	lbu	a5,32(a5)
   10450:	02f10e23          	sb	a5,60(sp)
   10454:	02000793          	li	a5,32
   10458:	04000893          	li	a7,64
   1045c:	00100513          	li	a0,1
   10460:	008005b3          	add	a1,zero,s0
   10464:	00078613          	mv	a2,a5
   10468:	00000073          	ecall
   1046c:	524000ef          	jal	10990 <get_cycles>
   10470:	00a12223          	sw	a0,4(sp)
   10474:	530000ef          	jal	109a4 <get_instret>
   10478:	00a12423          	sw	a0,8(sp)
   1047c:	1c8040ef          	jal	14644 <hanoi>
   10480:	510000ef          	jal	10990 <get_cycles>
   10484:	00a12623          	sw	a0,12(sp)
   10488:	51c000ef          	jal	109a4 <get_instret>
   1048c:	00812703          	lw	a4,8(sp)
   10490:	40e50733          	sub	a4,a0,a4
   10494:	00e12423          	sw	a4,8(sp)
   10498:	01a12e23          	sw	s10,28(sp)
   1049c:	03912023          	sw	s9,32(sp)
   104a0:	03811223          	sh	s8,36(sp)
   104a4:	03710323          	sb	s7,38(sp)
   104a8:	04000893          	li	a7,64
   104ac:	00100513          	li	a0,1
   104b0:	008005b3          	add	a1,zero,s0
   104b4:	00048613          	mv	a2,s1
   104b8:	00000073          	ecall
   104bc:	00c12683          	lw	a3,12(sp)
   104c0:	00412603          	lw	a2,4(sp)
   104c4:	40c68533          	sub	a0,a3,a2
   104c8:	b75ff0ef          	jal	1003c <print_dec>
   104cc:	01612e23          	sw	s6,28(sp)
   104d0:	03512023          	sw	s5,32(sp)
   104d4:	03412223          	sw	s4,36(sp)
   104d8:	03312423          	sw	s3,40(sp)
   104dc:	03210623          	sb	s2,44(sp)
   104e0:	04000893          	li	a7,64
   104e4:	00100513          	li	a0,1
   104e8:	008005b3          	add	a1,zero,s0
   104ec:	000d8613          	mv	a2,s11
   104f0:	00000073          	ecall
   104f4:	00812503          	lw	a0,8(sp)
   104f8:	b45ff0ef          	jal	1003c <print_dec>
   104fc:	00911e23          	sh	s1,28(sp)
   10500:	00100793          	li	a5,1
   10504:	04000893          	li	a7,64
   10508:	00100513          	li	a0,1
   1050c:	008005b3          	add	a1,zero,s0
   10510:	00078613          	mv	a2,a5
   10514:	00000073          	ecall
   10518:	000157b7          	lui	a5,0x15
   1051c:	8b078793          	addi	a5,a5,-1872 # 148b0 <finish_game+0xb8>
   10520:	0007a883          	lw	a7,0(a5)
   10524:	0047a803          	lw	a6,4(a5)
   10528:	0087a503          	lw	a0,8(a5)
   1052c:	00c7a583          	lw	a1,12(a5)
   10530:	0107a603          	lw	a2,16(a5)
   10534:	0147a683          	lw	a3,20(a5)
   10538:	0187a703          	lw	a4,24(a5)
   1053c:	01c7a783          	lw	a5,28(a5)
   10540:	01112e23          	sw	a7,28(sp)
   10544:	03012023          	sw	a6,32(sp)
   10548:	02a12223          	sw	a0,36(sp)
   1054c:	02b12423          	sw	a1,40(sp)
   10550:	02c12623          	sw	a2,44(sp)
   10554:	02d12823          	sw	a3,48(sp)
   10558:	02e12a23          	sw	a4,52(sp)
   1055c:	02f12c23          	sw	a5,56(sp)
   10560:	01f00793          	li	a5,31
   10564:	04000893          	li	a7,64
   10568:	00100513          	li	a0,1
   1056c:	008005b3          	add	a1,zero,s0
   10570:	00078613          	mv	a2,a5
   10574:	00000073          	ecall
   10578:	000157b7          	lui	a5,0x15
   1057c:	8d078793          	addi	a5,a5,-1840 # 148d0 <finish_game+0xd8>
   10580:	0007a803          	lw	a6,0(a5)
   10584:	0047a503          	lw	a0,4(a5)
   10588:	0087a583          	lw	a1,8(a5)
   1058c:	00c7a603          	lw	a2,12(a5)
   10590:	0107a683          	lw	a3,16(a5)
   10594:	0147a703          	lw	a4,20(a5)
   10598:	0187a783          	lw	a5,24(a5)
   1059c:	01012e23          	sw	a6,28(sp)
   105a0:	02a12023          	sw	a0,32(sp)
   105a4:	02b12223          	sw	a1,36(sp)
   105a8:	02c12423          	sw	a2,40(sp)
   105ac:	02d12623          	sw	a3,44(sp)
   105b0:	02e12823          	sw	a4,48(sp)
   105b4:	02f12a23          	sw	a5,52(sp)
   105b8:	01b00793          	li	a5,27
   105bc:	04000893          	li	a7,64
   105c0:	00100513          	li	a0,1
   105c4:	008005b3          	add	a1,zero,s0
   105c8:	00078613          	mv	a2,a5
   105cc:	00000073          	ecall
   105d0:	3c0000ef          	jal	10990 <get_cycles>
   105d4:	00050b13          	mv	s6,a0
   105d8:	3cc000ef          	jal	109a4 <get_instret>
   105dc:	00050b93          	mv	s7,a0
   105e0:	00000493          	li	s1,0
   105e4:	00100913          	li	s2,1
   105e8:	00015ab7          	lui	s5,0x15
   105ec:	00040a13          	mv	s4,s0
   105f0:	00900993          	li	s3,9
   105f4:	1d80006f          	j	107cc <main+0x5f0>
   105f8:	4017d793          	srai	a5,a5,0x1
   105fc:	fff70713          	addi	a4,a4,-1
   10600:	00070c63          	beqz	a4,10618 <main+0x43c>
   10604:	00f6d633          	srl	a2,a3,a5
   10608:	fe0608e3          	beqz	a2,105f8 <main+0x41c>
   1060c:	40f585b3          	sub	a1,a1,a5
   10610:	00060693          	mv	a3,a2
   10614:	fe5ff06f          	j	105f8 <main+0x41c>
   10618:	40b686b3          	sub	a3,a3,a1
   1061c:	01f68613          	addi	a2,a3,31
   10620:	8eca8713          	addi	a4,s5,-1812 # 148ec <rsqrt_table>
   10624:	00161793          	slli	a5,a2,0x1
   10628:	00f707b3          	add	a5,a4,a5
   1062c:	0007dc03          	lhu	s8,0(a5)
   10630:	00c915b3          	sll	a1,s2,a2
   10634:	40bc85b3          	sub	a1,s9,a1
   10638:	02068693          	addi	a3,a3,32
   1063c:	00169793          	slli	a5,a3,0x1
   10640:	00f70733          	add	a4,a4,a5
   10644:	00075503          	lhu	a0,0(a4)
   10648:	00c5d5b3          	srl	a1,a1,a2
   1064c:	40ac0533          	sub	a0,s8,a0
   10650:	ac5ff0ef          	jal	10114 <mul32>
   10654:	40ac0c33          	sub	s8,s8,a0
   10658:	203d27b7          	lui	a5,0x203d2
   1065c:	05878793          	addi	a5,a5,88 # 203d2058 <__stack_top+0x203bc698>
   10660:	00f12e23          	sw	a5,28(sp)
   10664:	02010023          	sb	zero,32(sp)
   10668:	00400793          	li	a5,4
   1066c:	04000893          	li	a7,64
   10670:	00100513          	li	a0,1
   10674:	014005b3          	add	a1,zero,s4
   10678:	00078613          	mv	a2,a5
   1067c:	00000073          	ecall
   10680:	000c8513          	mv	a0,s9
   10684:	9b9ff0ef          	jal	1003c <print_dec>
   10688:	00200413          	li	s0,2
   1068c:	00030d37          	lui	s10,0x30
   10690:	000c0593          	mv	a1,s8
   10694:	000c0513          	mv	a0,s8
   10698:	a7dff0ef          	jal	10114 <mul32>
   1069c:	00050593          	mv	a1,a0
   106a0:	000c8513          	mv	a0,s9
   106a4:	a71ff0ef          	jal	10114 <mul32>
   106a8:	01059793          	slli	a5,a1,0x10
   106ac:	01055593          	srli	a1,a0,0x10
   106b0:	00b7e5b3          	or	a1,a5,a1
   106b4:	40bd05b3          	sub	a1,s10,a1
   106b8:	000c0513          	mv	a0,s8
   106bc:	a59ff0ef          	jal	10114 <mul32>
   106c0:	00f59c13          	slli	s8,a1,0xf
   106c4:	01155513          	srli	a0,a0,0x11
   106c8:	00ac6c33          	or	s8,s8,a0
   106cc:	fff40413          	addi	s0,s0,-1
   106d0:	fc0410e3          	bnez	s0,10690 <main+0x4b4>
   106d4:	727177b7          	lui	a5,0x72717
   106d8:	37278793          	addi	a5,a5,882 # 72717372 <__stack_top+0x727019b2>
   106dc:	00f12e23          	sw	a5,28(sp)
   106e0:	203d27b7          	lui	a5,0x203d2
   106e4:	07478793          	addi	a5,a5,116 # 203d2074 <__stack_top+0x203bc6b4>
   106e8:	02f12023          	sw	a5,32(sp)
   106ec:	02010223          	sb	zero,36(sp)
   106f0:	00800793          	li	a5,8
   106f4:	04000893          	li	a7,64
   106f8:	00100513          	li	a0,1
   106fc:	014005b3          	add	a1,zero,s4
   10700:	00078613          	mv	a2,a5
   10704:	00000073          	ecall
   10708:	00040693          	mv	a3,s0
   1070c:	0000c7b7          	lui	a5,0xc
   10710:	35078793          	addi	a5,a5,848 # c350 <EXIT+0xc2f3>
   10714:	00f00713          	li	a4,15
   10718:	fff00613          	li	a2,-1
   1071c:	00ec55b3          	srl	a1,s8,a4
   10720:	0015f593          	andi	a1,a1,1
   10724:	40b005b3          	neg	a1,a1
   10728:	00f5f5b3          	and	a1,a1,a5
   1072c:	00b686b3          	add	a3,a3,a1
   10730:	0017d793          	srli	a5,a5,0x1
   10734:	fff70713          	addi	a4,a4,-1
   10738:	fec712e3          	bne	a4,a2,1071c <main+0x540>
   1073c:	00a00793          	li	a5,10
   10740:	02f107a3          	sb	a5,47(sp)
   10744:	12069263          	bnez	a3,10868 <main+0x68c>
   10748:	03000793          	li	a5,48
   1074c:	02f10723          	sb	a5,46(sp)
   10750:	02d10713          	addi	a4,sp,45
   10754:	ffb68693          	addi	a3,a3,-5
   10758:	00d705b3          	add	a1,a4,a3
   1075c:	00070793          	mv	a5,a4
   10760:	03000613          	li	a2,48
   10764:	00c78023          	sb	a2,0(a5)
   10768:	fff78793          	addi	a5,a5,-1
   1076c:	feb79ce3          	bne	a5,a1,10764 <main+0x588>
   10770:	00d70733          	add	a4,a4,a3
   10774:	02e00793          	li	a5,46
   10778:	00f70023          	sb	a5,0(a4)
   1077c:	fff70693          	addi	a3,a4,-1
   10780:	03000793          	li	a5,48
   10784:	fef70fa3          	sb	a5,-1(a4)
   10788:	00f107b3          	add	a5,sp,a5
   1078c:	40d787b3          	sub	a5,a5,a3
   10790:	04000893          	li	a7,64
   10794:	00100513          	li	a0,1
   10798:	00d005b3          	add	a1,zero,a3
   1079c:	00078613          	mv	a2,a5
   107a0:	00000073          	ecall
   107a4:	00a00793          	li	a5,10
   107a8:	00f11e23          	sh	a5,28(sp)
   107ac:	04000893          	li	a7,64
   107b0:	00100513          	li	a0,1
   107b4:	014005b3          	add	a1,zero,s4
   107b8:	00090613          	mv	a2,s2
   107bc:	00000073          	ecall
   107c0:	00248493          	addi	s1,s1,2
   107c4:	02000793          	li	a5,32
   107c8:	0cf48063          	beq	s1,a5,10888 <main+0x6ac>
   107cc:	00991cb3          	sll	s9,s2,s1
   107d0:	009c8cb3          	add	s9,s9,s1
   107d4:	000c8693          	mv	a3,s9
   107d8:	00500713          	li	a4,5
   107dc:	01000793          	li	a5,16
   107e0:	02000593          	li	a1,32
   107e4:	e21ff06f          	j	10604 <main+0x428>
   107e8:	fff60613          	addi	a2,a2,-1
   107ec:	03060063          	beq	a2,a6,1080c <main+0x630>
   107f0:	00179793          	slli	a5,a5,0x1
   107f4:	00c6d5b3          	srl	a1,a3,a2
   107f8:	0015f593          	andi	a1,a1,1
   107fc:	00f5e7b3          	or	a5,a1,a5
   10800:	fef9f4e3          	bgeu	s3,a5,107e8 <main+0x60c>
   10804:	ff678793          	addi	a5,a5,-10
   10808:	fe1ff06f          	j	107e8 <main+0x60c>
   1080c:	03078793          	addi	a5,a5,48
   10810:	00f70023          	sb	a5,0(a4)
   10814:	fff70713          	addi	a4,a4,-1
   10818:	00040793          	mv	a5,s0
   1081c:	00040613          	mv	a2,s0
   10820:	01f00593          	li	a1,31
   10824:	00c0006f          	j	10830 <main+0x654>
   10828:	fff58593          	addi	a1,a1,-1
   1082c:	03058463          	beq	a1,a6,10854 <main+0x678>
   10830:	00161613          	slli	a2,a2,0x1
   10834:	00b6d533          	srl	a0,a3,a1
   10838:	00157513          	andi	a0,a0,1
   1083c:	00c56633          	or	a2,a0,a2
   10840:	fec9f4e3          	bgeu	s3,a2,10828 <main+0x64c>
   10844:	ff660613          	addi	a2,a2,-10
   10848:	00b91533          	sll	a0,s2,a1
   1084c:	00a7e7b3          	or	a5,a5,a0
   10850:	fd9ff06f          	j	10828 <main+0x64c>
   10854:	02078063          	beqz	a5,10874 <main+0x698>
   10858:	00078693          	mv	a3,a5
   1085c:	00040793          	mv	a5,s0
   10860:	01f00613          	li	a2,31
   10864:	f8dff06f          	j	107f0 <main+0x614>
   10868:	02e10713          	addi	a4,sp,46
   1086c:	fff00813          	li	a6,-1
   10870:	fedff06f          	j	1085c <main+0x680>
   10874:	02e10693          	addi	a3,sp,46
   10878:	40e686b3          	sub	a3,a3,a4
   1087c:	00400793          	li	a5,4
   10880:	ecd7fae3          	bgeu	a5,a3,10754 <main+0x578>
   10884:	ef1ff06f          	j	10774 <main+0x598>
   10888:	108000ef          	jal	10990 <get_cycles>
   1088c:	00050913          	mv	s2,a0
   10890:	114000ef          	jal	109a4 <get_instret>
   10894:	41750bb3          	sub	s7,a0,s7
   10898:	000157b7          	lui	a5,0x15
   1089c:	85478793          	addi	a5,a5,-1964 # 14854 <finish_game+0x5c>
   108a0:	0007a683          	lw	a3,0(a5)
   108a4:	0047a703          	lw	a4,4(a5)
   108a8:	00d12e23          	sw	a3,28(sp)
   108ac:	02e12023          	sw	a4,32(sp)
   108b0:	0087d703          	lhu	a4,8(a5)
   108b4:	02e11223          	sh	a4,36(sp)
   108b8:	00a7c783          	lbu	a5,10(a5)
   108bc:	02f10323          	sb	a5,38(sp)
   108c0:	01c10413          	addi	s0,sp,28
   108c4:	00a00993          	li	s3,10
   108c8:	04000893          	li	a7,64
   108cc:	00100513          	li	a0,1
   108d0:	008005b3          	add	a1,zero,s0
   108d4:	00098613          	mv	a2,s3
   108d8:	00000073          	ecall
   108dc:	41690533          	sub	a0,s2,s6
   108e0:	f5cff0ef          	jal	1003c <print_dec>
   108e4:	000157b7          	lui	a5,0x15
   108e8:	86078793          	addi	a5,a5,-1952 # 14860 <finish_game+0x68>
   108ec:	0007a583          	lw	a1,0(a5)
   108f0:	0047a603          	lw	a2,4(a5)
   108f4:	0087a683          	lw	a3,8(a5)
   108f8:	00c7a703          	lw	a4,12(a5)
   108fc:	00b12e23          	sw	a1,28(sp)
   10900:	02c12023          	sw	a2,32(sp)
   10904:	02d12223          	sw	a3,36(sp)
   10908:	02e12423          	sw	a4,40(sp)
   1090c:	0107c783          	lbu	a5,16(a5)
   10910:	02f10623          	sb	a5,44(sp)
   10914:	01000793          	li	a5,16
   10918:	04000893          	li	a7,64
   1091c:	00100513          	li	a0,1
   10920:	008005b3          	add	a1,zero,s0
   10924:	00078613          	mv	a2,a5
   10928:	00000073          	ecall
   1092c:	000b8513          	mv	a0,s7
   10930:	f0cff0ef          	jal	1003c <print_dec>
   10934:	01311e23          	sh	s3,28(sp)
   10938:	00100793          	li	a5,1
   1093c:	04000893          	li	a7,64
   10940:	00100513          	li	a0,1
   10944:	008005b3          	add	a1,zero,s0
   10948:	00078613          	mv	a2,a5
   1094c:	00000073          	ecall
   10950:	00000513          	li	a0,0
   10954:	07c12083          	lw	ra,124(sp)
   10958:	07812403          	lw	s0,120(sp)
   1095c:	07412483          	lw	s1,116(sp)
   10960:	07012903          	lw	s2,112(sp)
   10964:	06c12983          	lw	s3,108(sp)
   10968:	06812a03          	lw	s4,104(sp)
   1096c:	06412a83          	lw	s5,100(sp)
   10970:	06012b03          	lw	s6,96(sp)
   10974:	05c12b83          	lw	s7,92(sp)
   10978:	05812c03          	lw	s8,88(sp)
   1097c:	05412c83          	lw	s9,84(sp)
   10980:	05012d03          	lw	s10,80(sp)
   10984:	04c12d83          	lw	s11,76(sp)
   10988:	08010113          	addi	sp,sp,128
   1098c:	00008067          	ret

00010990 <get_cycles>:
   10990:	c80025f3          	rdcycleh	a1
   10994:	c0002573          	rdcycle	a0
   10998:	c8002673          	rdcycleh	a2
   1099c:	fec59ae3          	bne	a1,a2,10990 <get_cycles>
   109a0:	00008067          	ret

000109a4 <get_instret>:
   109a4:	c82025f3          	rdinstreth	a1
   109a8:	c0202573          	rdinstret	a0
   109ac:	c8202673          	rdinstreth	a2
   109b0:	fec59ae3          	bne	a1,a2,109a4 <get_instret>
   109b4:	00008067          	ret

000109b8 <chacha20>:
   109b8:	fd410113          	addi	sp,sp,-44
   109bc:	00812223          	sw	s0,4(sp)
   109c0:	00912423          	sw	s1,8(sp)
   109c4:	01212623          	sw	s2,12(sp)
   109c8:	01312823          	sw	s3,16(sp)
   109cc:	01412a23          	sw	s4,20(sp)
   109d0:	01512c23          	sw	s5,24(sp)
   109d4:	01612e23          	sw	s6,28(sp)
   109d8:	03712023          	sw	s7,32(sp)
   109dc:	03812223          	sw	s8,36(sp)
   109e0:	03912423          	sw	s9,40(sp)
   109e4:	00004c17          	auipc	s8,0x4
   109e8:	f4cc0c13          	addi	s8,s8,-180 # 14930 <chacha20constants>
   109ec:	04000b93          	li	s7,64
   109f0:	01765463          	bge	a2,s7,109f8 <chacha20+0x40>
   109f4:	29d0106f          	j	12490 <chacha20+0x1ad8>
   109f8:	000c2803          	lw	a6,0(s8)
   109fc:	004c2883          	lw	a7,4(s8)
   10a00:	008c2283          	lw	t0,8(s8)
   10a04:	00cc2303          	lw	t1,12(s8)
   10a08:	0006a383          	lw	t2,0(a3)
   10a0c:	0046ae03          	lw	t3,4(a3)
   10a10:	0086ae83          	lw	t4,8(a3)
   10a14:	00c6af03          	lw	t5,12(a3)
   10a18:	0106af83          	lw	t6,16(a3)
   10a1c:	0146a403          	lw	s0,20(a3)
   10a20:	0186a483          	lw	s1,24(a3)
   10a24:	01c6a903          	lw	s2,28(a3)
   10a28:	00078993          	mv	s3,a5
   10a2c:	00072a03          	lw	s4,0(a4)
   10a30:	00472a83          	lw	s5,4(a4)
   10a34:	00872b03          	lw	s6,8(a4)
   10a38:	00780833          	add	a6,a6,t2
   10a3c:	0109c9b3          	xor	s3,s3,a6
   10a40:	01099b93          	slli	s7,s3,0x10
   10a44:	0109d993          	srli	s3,s3,0x10
   10a48:	0179c9b3          	xor	s3,s3,s7
   10a4c:	013f8fb3          	add	t6,t6,s3
   10a50:	01f3c3b3          	xor	t2,t2,t6
   10a54:	00c39b93          	slli	s7,t2,0xc
   10a58:	0143d393          	srli	t2,t2,0x14
   10a5c:	0173c3b3          	xor	t2,t2,s7
   10a60:	00780833          	add	a6,a6,t2
   10a64:	0109c9b3          	xor	s3,s3,a6
   10a68:	00899b93          	slli	s7,s3,0x8
   10a6c:	0189d993          	srli	s3,s3,0x18
   10a70:	0179c9b3          	xor	s3,s3,s7
   10a74:	013f8fb3          	add	t6,t6,s3
   10a78:	01f3c3b3          	xor	t2,t2,t6
   10a7c:	00739b93          	slli	s7,t2,0x7
   10a80:	0193d393          	srli	t2,t2,0x19
   10a84:	0173c3b3          	xor	t2,t2,s7
   10a88:	01c888b3          	add	a7,a7,t3
   10a8c:	011a4a33          	xor	s4,s4,a7
   10a90:	010a1b93          	slli	s7,s4,0x10
   10a94:	010a5a13          	srli	s4,s4,0x10
   10a98:	017a4a33          	xor	s4,s4,s7
   10a9c:	01440433          	add	s0,s0,s4
   10aa0:	008e4e33          	xor	t3,t3,s0
   10aa4:	00ce1b93          	slli	s7,t3,0xc
   10aa8:	014e5e13          	srli	t3,t3,0x14
   10aac:	017e4e33          	xor	t3,t3,s7
   10ab0:	01c888b3          	add	a7,a7,t3
   10ab4:	011a4a33          	xor	s4,s4,a7
   10ab8:	008a1b93          	slli	s7,s4,0x8
   10abc:	018a5a13          	srli	s4,s4,0x18
   10ac0:	017a4a33          	xor	s4,s4,s7
   10ac4:	01440433          	add	s0,s0,s4
   10ac8:	008e4e33          	xor	t3,t3,s0
   10acc:	007e1b93          	slli	s7,t3,0x7
   10ad0:	019e5e13          	srli	t3,t3,0x19
   10ad4:	017e4e33          	xor	t3,t3,s7
   10ad8:	01d282b3          	add	t0,t0,t4
   10adc:	005acab3          	xor	s5,s5,t0
   10ae0:	010a9b93          	slli	s7,s5,0x10
   10ae4:	010ada93          	srli	s5,s5,0x10
   10ae8:	017acab3          	xor	s5,s5,s7
   10aec:	015484b3          	add	s1,s1,s5
   10af0:	009eceb3          	xor	t4,t4,s1
   10af4:	00ce9b93          	slli	s7,t4,0xc
   10af8:	014ede93          	srli	t4,t4,0x14
   10afc:	017eceb3          	xor	t4,t4,s7
   10b00:	01d282b3          	add	t0,t0,t4
   10b04:	005acab3          	xor	s5,s5,t0
   10b08:	008a9b93          	slli	s7,s5,0x8
   10b0c:	018ada93          	srli	s5,s5,0x18
   10b10:	017acab3          	xor	s5,s5,s7
   10b14:	015484b3          	add	s1,s1,s5
   10b18:	009eceb3          	xor	t4,t4,s1
   10b1c:	007e9b93          	slli	s7,t4,0x7
   10b20:	019ede93          	srli	t4,t4,0x19
   10b24:	017eceb3          	xor	t4,t4,s7
   10b28:	01e30333          	add	t1,t1,t5
   10b2c:	006b4b33          	xor	s6,s6,t1
   10b30:	010b1b93          	slli	s7,s6,0x10
   10b34:	010b5b13          	srli	s6,s6,0x10
   10b38:	017b4b33          	xor	s6,s6,s7
   10b3c:	01690933          	add	s2,s2,s6
   10b40:	012f4f33          	xor	t5,t5,s2
   10b44:	00cf1b93          	slli	s7,t5,0xc
   10b48:	014f5f13          	srli	t5,t5,0x14
   10b4c:	017f4f33          	xor	t5,t5,s7
   10b50:	01e30333          	add	t1,t1,t5
   10b54:	006b4b33          	xor	s6,s6,t1
   10b58:	008b1b93          	slli	s7,s6,0x8
   10b5c:	018b5b13          	srli	s6,s6,0x18
   10b60:	017b4b33          	xor	s6,s6,s7
   10b64:	01690933          	add	s2,s2,s6
   10b68:	012f4f33          	xor	t5,t5,s2
   10b6c:	007f1b93          	slli	s7,t5,0x7
   10b70:	019f5f13          	srli	t5,t5,0x19
   10b74:	017f4f33          	xor	t5,t5,s7
   10b78:	01c80833          	add	a6,a6,t3
   10b7c:	010b4b33          	xor	s6,s6,a6
   10b80:	010b1b93          	slli	s7,s6,0x10
   10b84:	010b5b13          	srli	s6,s6,0x10
   10b88:	017b4b33          	xor	s6,s6,s7
   10b8c:	016484b3          	add	s1,s1,s6
   10b90:	009e4e33          	xor	t3,t3,s1
   10b94:	00ce1b93          	slli	s7,t3,0xc
   10b98:	014e5e13          	srli	t3,t3,0x14
   10b9c:	017e4e33          	xor	t3,t3,s7
   10ba0:	01c80833          	add	a6,a6,t3
   10ba4:	010b4b33          	xor	s6,s6,a6
   10ba8:	008b1b93          	slli	s7,s6,0x8
   10bac:	018b5b13          	srli	s6,s6,0x18
   10bb0:	017b4b33          	xor	s6,s6,s7
   10bb4:	016484b3          	add	s1,s1,s6
   10bb8:	009e4e33          	xor	t3,t3,s1
   10bbc:	007e1b93          	slli	s7,t3,0x7
   10bc0:	019e5e13          	srli	t3,t3,0x19
   10bc4:	017e4e33          	xor	t3,t3,s7
   10bc8:	01d888b3          	add	a7,a7,t4
   10bcc:	0119c9b3          	xor	s3,s3,a7
   10bd0:	01099b93          	slli	s7,s3,0x10
   10bd4:	0109d993          	srli	s3,s3,0x10
   10bd8:	0179c9b3          	xor	s3,s3,s7
   10bdc:	01390933          	add	s2,s2,s3
   10be0:	012eceb3          	xor	t4,t4,s2
   10be4:	00ce9b93          	slli	s7,t4,0xc
   10be8:	014ede93          	srli	t4,t4,0x14
   10bec:	017eceb3          	xor	t4,t4,s7
   10bf0:	01d888b3          	add	a7,a7,t4
   10bf4:	0119c9b3          	xor	s3,s3,a7
   10bf8:	00899b93          	slli	s7,s3,0x8
   10bfc:	0189d993          	srli	s3,s3,0x18
   10c00:	0179c9b3          	xor	s3,s3,s7
   10c04:	01390933          	add	s2,s2,s3
   10c08:	012eceb3          	xor	t4,t4,s2
   10c0c:	007e9b93          	slli	s7,t4,0x7
   10c10:	019ede93          	srli	t4,t4,0x19
   10c14:	017eceb3          	xor	t4,t4,s7
   10c18:	01e282b3          	add	t0,t0,t5
   10c1c:	005a4a33          	xor	s4,s4,t0
   10c20:	010a1b93          	slli	s7,s4,0x10
   10c24:	010a5a13          	srli	s4,s4,0x10
   10c28:	017a4a33          	xor	s4,s4,s7
   10c2c:	014f8fb3          	add	t6,t6,s4
   10c30:	01ff4f33          	xor	t5,t5,t6
   10c34:	00cf1b93          	slli	s7,t5,0xc
   10c38:	014f5f13          	srli	t5,t5,0x14
   10c3c:	017f4f33          	xor	t5,t5,s7
   10c40:	01e282b3          	add	t0,t0,t5
   10c44:	005a4a33          	xor	s4,s4,t0
   10c48:	008a1b93          	slli	s7,s4,0x8
   10c4c:	018a5a13          	srli	s4,s4,0x18
   10c50:	017a4a33          	xor	s4,s4,s7
   10c54:	014f8fb3          	add	t6,t6,s4
   10c58:	01ff4f33          	xor	t5,t5,t6
   10c5c:	007f1b93          	slli	s7,t5,0x7
   10c60:	019f5f13          	srli	t5,t5,0x19
   10c64:	017f4f33          	xor	t5,t5,s7
   10c68:	00730333          	add	t1,t1,t2
   10c6c:	006acab3          	xor	s5,s5,t1
   10c70:	010a9b93          	slli	s7,s5,0x10
   10c74:	010ada93          	srli	s5,s5,0x10
   10c78:	017acab3          	xor	s5,s5,s7
   10c7c:	01540433          	add	s0,s0,s5
   10c80:	0083c3b3          	xor	t2,t2,s0
   10c84:	00c39b93          	slli	s7,t2,0xc
   10c88:	0143d393          	srli	t2,t2,0x14
   10c8c:	0173c3b3          	xor	t2,t2,s7
   10c90:	00730333          	add	t1,t1,t2
   10c94:	006acab3          	xor	s5,s5,t1
   10c98:	008a9b93          	slli	s7,s5,0x8
   10c9c:	018ada93          	srli	s5,s5,0x18
   10ca0:	017acab3          	xor	s5,s5,s7
   10ca4:	01540433          	add	s0,s0,s5
   10ca8:	0083c3b3          	xor	t2,t2,s0
   10cac:	00739b93          	slli	s7,t2,0x7
   10cb0:	0193d393          	srli	t2,t2,0x19
   10cb4:	0173c3b3          	xor	t2,t2,s7
   10cb8:	00780833          	add	a6,a6,t2
   10cbc:	0109c9b3          	xor	s3,s3,a6
   10cc0:	01099b93          	slli	s7,s3,0x10
   10cc4:	0109d993          	srli	s3,s3,0x10
   10cc8:	0179c9b3          	xor	s3,s3,s7
   10ccc:	013f8fb3          	add	t6,t6,s3
   10cd0:	01f3c3b3          	xor	t2,t2,t6
   10cd4:	00c39b93          	slli	s7,t2,0xc
   10cd8:	0143d393          	srli	t2,t2,0x14
   10cdc:	0173c3b3          	xor	t2,t2,s7
   10ce0:	00780833          	add	a6,a6,t2
   10ce4:	0109c9b3          	xor	s3,s3,a6
   10ce8:	00899b93          	slli	s7,s3,0x8
   10cec:	0189d993          	srli	s3,s3,0x18
   10cf0:	0179c9b3          	xor	s3,s3,s7
   10cf4:	013f8fb3          	add	t6,t6,s3
   10cf8:	01f3c3b3          	xor	t2,t2,t6
   10cfc:	00739b93          	slli	s7,t2,0x7
   10d00:	0193d393          	srli	t2,t2,0x19
   10d04:	0173c3b3          	xor	t2,t2,s7
   10d08:	01c888b3          	add	a7,a7,t3
   10d0c:	011a4a33          	xor	s4,s4,a7
   10d10:	010a1b93          	slli	s7,s4,0x10
   10d14:	010a5a13          	srli	s4,s4,0x10
   10d18:	017a4a33          	xor	s4,s4,s7
   10d1c:	01440433          	add	s0,s0,s4
   10d20:	008e4e33          	xor	t3,t3,s0
   10d24:	00ce1b93          	slli	s7,t3,0xc
   10d28:	014e5e13          	srli	t3,t3,0x14
   10d2c:	017e4e33          	xor	t3,t3,s7
   10d30:	01c888b3          	add	a7,a7,t3
   10d34:	011a4a33          	xor	s4,s4,a7
   10d38:	008a1b93          	slli	s7,s4,0x8
   10d3c:	018a5a13          	srli	s4,s4,0x18
   10d40:	017a4a33          	xor	s4,s4,s7
   10d44:	01440433          	add	s0,s0,s4
   10d48:	008e4e33          	xor	t3,t3,s0
   10d4c:	007e1b93          	slli	s7,t3,0x7
   10d50:	019e5e13          	srli	t3,t3,0x19
   10d54:	017e4e33          	xor	t3,t3,s7
   10d58:	01d282b3          	add	t0,t0,t4
   10d5c:	005acab3          	xor	s5,s5,t0
   10d60:	010a9b93          	slli	s7,s5,0x10
   10d64:	010ada93          	srli	s5,s5,0x10
   10d68:	017acab3          	xor	s5,s5,s7
   10d6c:	015484b3          	add	s1,s1,s5
   10d70:	009eceb3          	xor	t4,t4,s1
   10d74:	00ce9b93          	slli	s7,t4,0xc
   10d78:	014ede93          	srli	t4,t4,0x14
   10d7c:	017eceb3          	xor	t4,t4,s7
   10d80:	01d282b3          	add	t0,t0,t4
   10d84:	005acab3          	xor	s5,s5,t0
   10d88:	008a9b93          	slli	s7,s5,0x8
   10d8c:	018ada93          	srli	s5,s5,0x18
   10d90:	017acab3          	xor	s5,s5,s7
   10d94:	015484b3          	add	s1,s1,s5
   10d98:	009eceb3          	xor	t4,t4,s1
   10d9c:	007e9b93          	slli	s7,t4,0x7
   10da0:	019ede93          	srli	t4,t4,0x19
   10da4:	017eceb3          	xor	t4,t4,s7
   10da8:	01e30333          	add	t1,t1,t5
   10dac:	006b4b33          	xor	s6,s6,t1
   10db0:	010b1b93          	slli	s7,s6,0x10
   10db4:	010b5b13          	srli	s6,s6,0x10
   10db8:	017b4b33          	xor	s6,s6,s7
   10dbc:	01690933          	add	s2,s2,s6
   10dc0:	012f4f33          	xor	t5,t5,s2
   10dc4:	00cf1b93          	slli	s7,t5,0xc
   10dc8:	014f5f13          	srli	t5,t5,0x14
   10dcc:	017f4f33          	xor	t5,t5,s7
   10dd0:	01e30333          	add	t1,t1,t5
   10dd4:	006b4b33          	xor	s6,s6,t1
   10dd8:	008b1b93          	slli	s7,s6,0x8
   10ddc:	018b5b13          	srli	s6,s6,0x18
   10de0:	017b4b33          	xor	s6,s6,s7
   10de4:	01690933          	add	s2,s2,s6
   10de8:	012f4f33          	xor	t5,t5,s2
   10dec:	007f1b93          	slli	s7,t5,0x7
   10df0:	019f5f13          	srli	t5,t5,0x19
   10df4:	017f4f33          	xor	t5,t5,s7
   10df8:	01c80833          	add	a6,a6,t3
   10dfc:	010b4b33          	xor	s6,s6,a6
   10e00:	010b1b93          	slli	s7,s6,0x10
   10e04:	010b5b13          	srli	s6,s6,0x10
   10e08:	017b4b33          	xor	s6,s6,s7
   10e0c:	016484b3          	add	s1,s1,s6
   10e10:	009e4e33          	xor	t3,t3,s1
   10e14:	00ce1b93          	slli	s7,t3,0xc
   10e18:	014e5e13          	srli	t3,t3,0x14
   10e1c:	017e4e33          	xor	t3,t3,s7
   10e20:	01c80833          	add	a6,a6,t3
   10e24:	010b4b33          	xor	s6,s6,a6
   10e28:	008b1b93          	slli	s7,s6,0x8
   10e2c:	018b5b13          	srli	s6,s6,0x18
   10e30:	017b4b33          	xor	s6,s6,s7
   10e34:	016484b3          	add	s1,s1,s6
   10e38:	009e4e33          	xor	t3,t3,s1
   10e3c:	007e1b93          	slli	s7,t3,0x7
   10e40:	019e5e13          	srli	t3,t3,0x19
   10e44:	017e4e33          	xor	t3,t3,s7
   10e48:	01d888b3          	add	a7,a7,t4
   10e4c:	0119c9b3          	xor	s3,s3,a7
   10e50:	01099b93          	slli	s7,s3,0x10
   10e54:	0109d993          	srli	s3,s3,0x10
   10e58:	0179c9b3          	xor	s3,s3,s7
   10e5c:	01390933          	add	s2,s2,s3
   10e60:	012eceb3          	xor	t4,t4,s2
   10e64:	00ce9b93          	slli	s7,t4,0xc
   10e68:	014ede93          	srli	t4,t4,0x14
   10e6c:	017eceb3          	xor	t4,t4,s7
   10e70:	01d888b3          	add	a7,a7,t4
   10e74:	0119c9b3          	xor	s3,s3,a7
   10e78:	00899b93          	slli	s7,s3,0x8
   10e7c:	0189d993          	srli	s3,s3,0x18
   10e80:	0179c9b3          	xor	s3,s3,s7
   10e84:	01390933          	add	s2,s2,s3
   10e88:	012eceb3          	xor	t4,t4,s2
   10e8c:	007e9b93          	slli	s7,t4,0x7
   10e90:	019ede93          	srli	t4,t4,0x19
   10e94:	017eceb3          	xor	t4,t4,s7
   10e98:	01e282b3          	add	t0,t0,t5
   10e9c:	005a4a33          	xor	s4,s4,t0
   10ea0:	010a1b93          	slli	s7,s4,0x10
   10ea4:	010a5a13          	srli	s4,s4,0x10
   10ea8:	017a4a33          	xor	s4,s4,s7
   10eac:	014f8fb3          	add	t6,t6,s4
   10eb0:	01ff4f33          	xor	t5,t5,t6
   10eb4:	00cf1b93          	slli	s7,t5,0xc
   10eb8:	014f5f13          	srli	t5,t5,0x14
   10ebc:	017f4f33          	xor	t5,t5,s7
   10ec0:	01e282b3          	add	t0,t0,t5
   10ec4:	005a4a33          	xor	s4,s4,t0
   10ec8:	008a1b93          	slli	s7,s4,0x8
   10ecc:	018a5a13          	srli	s4,s4,0x18
   10ed0:	017a4a33          	xor	s4,s4,s7
   10ed4:	014f8fb3          	add	t6,t6,s4
   10ed8:	01ff4f33          	xor	t5,t5,t6
   10edc:	007f1b93          	slli	s7,t5,0x7
   10ee0:	019f5f13          	srli	t5,t5,0x19
   10ee4:	017f4f33          	xor	t5,t5,s7
   10ee8:	00730333          	add	t1,t1,t2
   10eec:	006acab3          	xor	s5,s5,t1
   10ef0:	010a9b93          	slli	s7,s5,0x10
   10ef4:	010ada93          	srli	s5,s5,0x10
   10ef8:	017acab3          	xor	s5,s5,s7
   10efc:	01540433          	add	s0,s0,s5
   10f00:	0083c3b3          	xor	t2,t2,s0
   10f04:	00c39b93          	slli	s7,t2,0xc
   10f08:	0143d393          	srli	t2,t2,0x14
   10f0c:	0173c3b3          	xor	t2,t2,s7
   10f10:	00730333          	add	t1,t1,t2
   10f14:	006acab3          	xor	s5,s5,t1
   10f18:	008a9b93          	slli	s7,s5,0x8
   10f1c:	018ada93          	srli	s5,s5,0x18
   10f20:	017acab3          	xor	s5,s5,s7
   10f24:	01540433          	add	s0,s0,s5
   10f28:	0083c3b3          	xor	t2,t2,s0
   10f2c:	00739b93          	slli	s7,t2,0x7
   10f30:	0193d393          	srli	t2,t2,0x19
   10f34:	0173c3b3          	xor	t2,t2,s7
   10f38:	00780833          	add	a6,a6,t2
   10f3c:	0109c9b3          	xor	s3,s3,a6
   10f40:	01099b93          	slli	s7,s3,0x10
   10f44:	0109d993          	srli	s3,s3,0x10
   10f48:	0179c9b3          	xor	s3,s3,s7
   10f4c:	013f8fb3          	add	t6,t6,s3
   10f50:	01f3c3b3          	xor	t2,t2,t6
   10f54:	00c39b93          	slli	s7,t2,0xc
   10f58:	0143d393          	srli	t2,t2,0x14
   10f5c:	0173c3b3          	xor	t2,t2,s7
   10f60:	00780833          	add	a6,a6,t2
   10f64:	0109c9b3          	xor	s3,s3,a6
   10f68:	00899b93          	slli	s7,s3,0x8
   10f6c:	0189d993          	srli	s3,s3,0x18
   10f70:	0179c9b3          	xor	s3,s3,s7
   10f74:	013f8fb3          	add	t6,t6,s3
   10f78:	01f3c3b3          	xor	t2,t2,t6
   10f7c:	00739b93          	slli	s7,t2,0x7
   10f80:	0193d393          	srli	t2,t2,0x19
   10f84:	0173c3b3          	xor	t2,t2,s7
   10f88:	01c888b3          	add	a7,a7,t3
   10f8c:	011a4a33          	xor	s4,s4,a7
   10f90:	010a1b93          	slli	s7,s4,0x10
   10f94:	010a5a13          	srli	s4,s4,0x10
   10f98:	017a4a33          	xor	s4,s4,s7
   10f9c:	01440433          	add	s0,s0,s4
   10fa0:	008e4e33          	xor	t3,t3,s0
   10fa4:	00ce1b93          	slli	s7,t3,0xc
   10fa8:	014e5e13          	srli	t3,t3,0x14
   10fac:	017e4e33          	xor	t3,t3,s7
   10fb0:	01c888b3          	add	a7,a7,t3
   10fb4:	011a4a33          	xor	s4,s4,a7
   10fb8:	008a1b93          	slli	s7,s4,0x8
   10fbc:	018a5a13          	srli	s4,s4,0x18
   10fc0:	017a4a33          	xor	s4,s4,s7
   10fc4:	01440433          	add	s0,s0,s4
   10fc8:	008e4e33          	xor	t3,t3,s0
   10fcc:	007e1b93          	slli	s7,t3,0x7
   10fd0:	019e5e13          	srli	t3,t3,0x19
   10fd4:	017e4e33          	xor	t3,t3,s7
   10fd8:	01d282b3          	add	t0,t0,t4
   10fdc:	005acab3          	xor	s5,s5,t0
   10fe0:	010a9b93          	slli	s7,s5,0x10
   10fe4:	010ada93          	srli	s5,s5,0x10
   10fe8:	017acab3          	xor	s5,s5,s7
   10fec:	015484b3          	add	s1,s1,s5
   10ff0:	009eceb3          	xor	t4,t4,s1
   10ff4:	00ce9b93          	slli	s7,t4,0xc
   10ff8:	014ede93          	srli	t4,t4,0x14
   10ffc:	017eceb3          	xor	t4,t4,s7
   11000:	01d282b3          	add	t0,t0,t4
   11004:	005acab3          	xor	s5,s5,t0
   11008:	008a9b93          	slli	s7,s5,0x8
   1100c:	018ada93          	srli	s5,s5,0x18
   11010:	017acab3          	xor	s5,s5,s7
   11014:	015484b3          	add	s1,s1,s5
   11018:	009eceb3          	xor	t4,t4,s1
   1101c:	007e9b93          	slli	s7,t4,0x7
   11020:	019ede93          	srli	t4,t4,0x19
   11024:	017eceb3          	xor	t4,t4,s7
   11028:	01e30333          	add	t1,t1,t5
   1102c:	006b4b33          	xor	s6,s6,t1
   11030:	010b1b93          	slli	s7,s6,0x10
   11034:	010b5b13          	srli	s6,s6,0x10
   11038:	017b4b33          	xor	s6,s6,s7
   1103c:	01690933          	add	s2,s2,s6
   11040:	012f4f33          	xor	t5,t5,s2
   11044:	00cf1b93          	slli	s7,t5,0xc
   11048:	014f5f13          	srli	t5,t5,0x14
   1104c:	017f4f33          	xor	t5,t5,s7
   11050:	01e30333          	add	t1,t1,t5
   11054:	006b4b33          	xor	s6,s6,t1
   11058:	008b1b93          	slli	s7,s6,0x8
   1105c:	018b5b13          	srli	s6,s6,0x18
   11060:	017b4b33          	xor	s6,s6,s7
   11064:	01690933          	add	s2,s2,s6
   11068:	012f4f33          	xor	t5,t5,s2
   1106c:	007f1b93          	slli	s7,t5,0x7
   11070:	019f5f13          	srli	t5,t5,0x19
   11074:	017f4f33          	xor	t5,t5,s7
   11078:	01c80833          	add	a6,a6,t3
   1107c:	010b4b33          	xor	s6,s6,a6
   11080:	010b1b93          	slli	s7,s6,0x10
   11084:	010b5b13          	srli	s6,s6,0x10
   11088:	017b4b33          	xor	s6,s6,s7
   1108c:	016484b3          	add	s1,s1,s6
   11090:	009e4e33          	xor	t3,t3,s1
   11094:	00ce1b93          	slli	s7,t3,0xc
   11098:	014e5e13          	srli	t3,t3,0x14
   1109c:	017e4e33          	xor	t3,t3,s7
   110a0:	01c80833          	add	a6,a6,t3
   110a4:	010b4b33          	xor	s6,s6,a6
   110a8:	008b1b93          	slli	s7,s6,0x8
   110ac:	018b5b13          	srli	s6,s6,0x18
   110b0:	017b4b33          	xor	s6,s6,s7
   110b4:	016484b3          	add	s1,s1,s6
   110b8:	009e4e33          	xor	t3,t3,s1
   110bc:	007e1b93          	slli	s7,t3,0x7
   110c0:	019e5e13          	srli	t3,t3,0x19
   110c4:	017e4e33          	xor	t3,t3,s7
   110c8:	01d888b3          	add	a7,a7,t4
   110cc:	0119c9b3          	xor	s3,s3,a7
   110d0:	01099b93          	slli	s7,s3,0x10
   110d4:	0109d993          	srli	s3,s3,0x10
   110d8:	0179c9b3          	xor	s3,s3,s7
   110dc:	01390933          	add	s2,s2,s3
   110e0:	012eceb3          	xor	t4,t4,s2
   110e4:	00ce9b93          	slli	s7,t4,0xc
   110e8:	014ede93          	srli	t4,t4,0x14
   110ec:	017eceb3          	xor	t4,t4,s7
   110f0:	01d888b3          	add	a7,a7,t4
   110f4:	0119c9b3          	xor	s3,s3,a7
   110f8:	00899b93          	slli	s7,s3,0x8
   110fc:	0189d993          	srli	s3,s3,0x18
   11100:	0179c9b3          	xor	s3,s3,s7
   11104:	01390933          	add	s2,s2,s3
   11108:	012eceb3          	xor	t4,t4,s2
   1110c:	007e9b93          	slli	s7,t4,0x7
   11110:	019ede93          	srli	t4,t4,0x19
   11114:	017eceb3          	xor	t4,t4,s7
   11118:	01e282b3          	add	t0,t0,t5
   1111c:	005a4a33          	xor	s4,s4,t0
   11120:	010a1b93          	slli	s7,s4,0x10
   11124:	010a5a13          	srli	s4,s4,0x10
   11128:	017a4a33          	xor	s4,s4,s7
   1112c:	014f8fb3          	add	t6,t6,s4
   11130:	01ff4f33          	xor	t5,t5,t6
   11134:	00cf1b93          	slli	s7,t5,0xc
   11138:	014f5f13          	srli	t5,t5,0x14
   1113c:	017f4f33          	xor	t5,t5,s7
   11140:	01e282b3          	add	t0,t0,t5
   11144:	005a4a33          	xor	s4,s4,t0
   11148:	008a1b93          	slli	s7,s4,0x8
   1114c:	018a5a13          	srli	s4,s4,0x18
   11150:	017a4a33          	xor	s4,s4,s7
   11154:	014f8fb3          	add	t6,t6,s4
   11158:	01ff4f33          	xor	t5,t5,t6
   1115c:	007f1b93          	slli	s7,t5,0x7
   11160:	019f5f13          	srli	t5,t5,0x19
   11164:	017f4f33          	xor	t5,t5,s7
   11168:	00730333          	add	t1,t1,t2
   1116c:	006acab3          	xor	s5,s5,t1
   11170:	010a9b93          	slli	s7,s5,0x10
   11174:	010ada93          	srli	s5,s5,0x10
   11178:	017acab3          	xor	s5,s5,s7
   1117c:	01540433          	add	s0,s0,s5
   11180:	0083c3b3          	xor	t2,t2,s0
   11184:	00c39b93          	slli	s7,t2,0xc
   11188:	0143d393          	srli	t2,t2,0x14
   1118c:	0173c3b3          	xor	t2,t2,s7
   11190:	00730333          	add	t1,t1,t2
   11194:	006acab3          	xor	s5,s5,t1
   11198:	008a9b93          	slli	s7,s5,0x8
   1119c:	018ada93          	srli	s5,s5,0x18
   111a0:	017acab3          	xor	s5,s5,s7
   111a4:	01540433          	add	s0,s0,s5
   111a8:	0083c3b3          	xor	t2,t2,s0
   111ac:	00739b93          	slli	s7,t2,0x7
   111b0:	0193d393          	srli	t2,t2,0x19
   111b4:	0173c3b3          	xor	t2,t2,s7
   111b8:	00780833          	add	a6,a6,t2
   111bc:	0109c9b3          	xor	s3,s3,a6
   111c0:	01099b93          	slli	s7,s3,0x10
   111c4:	0109d993          	srli	s3,s3,0x10
   111c8:	0179c9b3          	xor	s3,s3,s7
   111cc:	013f8fb3          	add	t6,t6,s3
   111d0:	01f3c3b3          	xor	t2,t2,t6
   111d4:	00c39b93          	slli	s7,t2,0xc
   111d8:	0143d393          	srli	t2,t2,0x14
   111dc:	0173c3b3          	xor	t2,t2,s7
   111e0:	00780833          	add	a6,a6,t2
   111e4:	0109c9b3          	xor	s3,s3,a6
   111e8:	00899b93          	slli	s7,s3,0x8
   111ec:	0189d993          	srli	s3,s3,0x18
   111f0:	0179c9b3          	xor	s3,s3,s7
   111f4:	013f8fb3          	add	t6,t6,s3
   111f8:	01f3c3b3          	xor	t2,t2,t6
   111fc:	00739b93          	slli	s7,t2,0x7
   11200:	0193d393          	srli	t2,t2,0x19
   11204:	0173c3b3          	xor	t2,t2,s7
   11208:	01c888b3          	add	a7,a7,t3
   1120c:	011a4a33          	xor	s4,s4,a7
   11210:	010a1b93          	slli	s7,s4,0x10
   11214:	010a5a13          	srli	s4,s4,0x10
   11218:	017a4a33          	xor	s4,s4,s7
   1121c:	01440433          	add	s0,s0,s4
   11220:	008e4e33          	xor	t3,t3,s0
   11224:	00ce1b93          	slli	s7,t3,0xc
   11228:	014e5e13          	srli	t3,t3,0x14
   1122c:	017e4e33          	xor	t3,t3,s7
   11230:	01c888b3          	add	a7,a7,t3
   11234:	011a4a33          	xor	s4,s4,a7
   11238:	008a1b93          	slli	s7,s4,0x8
   1123c:	018a5a13          	srli	s4,s4,0x18
   11240:	017a4a33          	xor	s4,s4,s7
   11244:	01440433          	add	s0,s0,s4
   11248:	008e4e33          	xor	t3,t3,s0
   1124c:	007e1b93          	slli	s7,t3,0x7
   11250:	019e5e13          	srli	t3,t3,0x19
   11254:	017e4e33          	xor	t3,t3,s7
   11258:	01d282b3          	add	t0,t0,t4
   1125c:	005acab3          	xor	s5,s5,t0
   11260:	010a9b93          	slli	s7,s5,0x10
   11264:	010ada93          	srli	s5,s5,0x10
   11268:	017acab3          	xor	s5,s5,s7
   1126c:	015484b3          	add	s1,s1,s5
   11270:	009eceb3          	xor	t4,t4,s1
   11274:	00ce9b93          	slli	s7,t4,0xc
   11278:	014ede93          	srli	t4,t4,0x14
   1127c:	017eceb3          	xor	t4,t4,s7
   11280:	01d282b3          	add	t0,t0,t4
   11284:	005acab3          	xor	s5,s5,t0
   11288:	008a9b93          	slli	s7,s5,0x8
   1128c:	018ada93          	srli	s5,s5,0x18
   11290:	017acab3          	xor	s5,s5,s7
   11294:	015484b3          	add	s1,s1,s5
   11298:	009eceb3          	xor	t4,t4,s1
   1129c:	007e9b93          	slli	s7,t4,0x7
   112a0:	019ede93          	srli	t4,t4,0x19
   112a4:	017eceb3          	xor	t4,t4,s7
   112a8:	01e30333          	add	t1,t1,t5
   112ac:	006b4b33          	xor	s6,s6,t1
   112b0:	010b1b93          	slli	s7,s6,0x10
   112b4:	010b5b13          	srli	s6,s6,0x10
   112b8:	017b4b33          	xor	s6,s6,s7
   112bc:	01690933          	add	s2,s2,s6
   112c0:	012f4f33          	xor	t5,t5,s2
   112c4:	00cf1b93          	slli	s7,t5,0xc
   112c8:	014f5f13          	srli	t5,t5,0x14
   112cc:	017f4f33          	xor	t5,t5,s7
   112d0:	01e30333          	add	t1,t1,t5
   112d4:	006b4b33          	xor	s6,s6,t1
   112d8:	008b1b93          	slli	s7,s6,0x8
   112dc:	018b5b13          	srli	s6,s6,0x18
   112e0:	017b4b33          	xor	s6,s6,s7
   112e4:	01690933          	add	s2,s2,s6
   112e8:	012f4f33          	xor	t5,t5,s2
   112ec:	007f1b93          	slli	s7,t5,0x7
   112f0:	019f5f13          	srli	t5,t5,0x19
   112f4:	017f4f33          	xor	t5,t5,s7
   112f8:	01c80833          	add	a6,a6,t3
   112fc:	010b4b33          	xor	s6,s6,a6
   11300:	010b1b93          	slli	s7,s6,0x10
   11304:	010b5b13          	srli	s6,s6,0x10
   11308:	017b4b33          	xor	s6,s6,s7
   1130c:	016484b3          	add	s1,s1,s6
   11310:	009e4e33          	xor	t3,t3,s1
   11314:	00ce1b93          	slli	s7,t3,0xc
   11318:	014e5e13          	srli	t3,t3,0x14
   1131c:	017e4e33          	xor	t3,t3,s7
   11320:	01c80833          	add	a6,a6,t3
   11324:	010b4b33          	xor	s6,s6,a6
   11328:	008b1b93          	slli	s7,s6,0x8
   1132c:	018b5b13          	srli	s6,s6,0x18
   11330:	017b4b33          	xor	s6,s6,s7
   11334:	016484b3          	add	s1,s1,s6
   11338:	009e4e33          	xor	t3,t3,s1
   1133c:	007e1b93          	slli	s7,t3,0x7
   11340:	019e5e13          	srli	t3,t3,0x19
   11344:	017e4e33          	xor	t3,t3,s7
   11348:	01d888b3          	add	a7,a7,t4
   1134c:	0119c9b3          	xor	s3,s3,a7
   11350:	01099b93          	slli	s7,s3,0x10
   11354:	0109d993          	srli	s3,s3,0x10
   11358:	0179c9b3          	xor	s3,s3,s7
   1135c:	01390933          	add	s2,s2,s3
   11360:	012eceb3          	xor	t4,t4,s2
   11364:	00ce9b93          	slli	s7,t4,0xc
   11368:	014ede93          	srli	t4,t4,0x14
   1136c:	017eceb3          	xor	t4,t4,s7
   11370:	01d888b3          	add	a7,a7,t4
   11374:	0119c9b3          	xor	s3,s3,a7
   11378:	00899b93          	slli	s7,s3,0x8
   1137c:	0189d993          	srli	s3,s3,0x18
   11380:	0179c9b3          	xor	s3,s3,s7
   11384:	01390933          	add	s2,s2,s3
   11388:	012eceb3          	xor	t4,t4,s2
   1138c:	007e9b93          	slli	s7,t4,0x7
   11390:	019ede93          	srli	t4,t4,0x19
   11394:	017eceb3          	xor	t4,t4,s7
   11398:	01e282b3          	add	t0,t0,t5
   1139c:	005a4a33          	xor	s4,s4,t0
   113a0:	010a1b93          	slli	s7,s4,0x10
   113a4:	010a5a13          	srli	s4,s4,0x10
   113a8:	017a4a33          	xor	s4,s4,s7
   113ac:	014f8fb3          	add	t6,t6,s4
   113b0:	01ff4f33          	xor	t5,t5,t6
   113b4:	00cf1b93          	slli	s7,t5,0xc
   113b8:	014f5f13          	srli	t5,t5,0x14
   113bc:	017f4f33          	xor	t5,t5,s7
   113c0:	01e282b3          	add	t0,t0,t5
   113c4:	005a4a33          	xor	s4,s4,t0
   113c8:	008a1b93          	slli	s7,s4,0x8
   113cc:	018a5a13          	srli	s4,s4,0x18
   113d0:	017a4a33          	xor	s4,s4,s7
   113d4:	014f8fb3          	add	t6,t6,s4
   113d8:	01ff4f33          	xor	t5,t5,t6
   113dc:	007f1b93          	slli	s7,t5,0x7
   113e0:	019f5f13          	srli	t5,t5,0x19
   113e4:	017f4f33          	xor	t5,t5,s7
   113e8:	00730333          	add	t1,t1,t2
   113ec:	006acab3          	xor	s5,s5,t1
   113f0:	010a9b93          	slli	s7,s5,0x10
   113f4:	010ada93          	srli	s5,s5,0x10
   113f8:	017acab3          	xor	s5,s5,s7
   113fc:	01540433          	add	s0,s0,s5
   11400:	0083c3b3          	xor	t2,t2,s0
   11404:	00c39b93          	slli	s7,t2,0xc
   11408:	0143d393          	srli	t2,t2,0x14
   1140c:	0173c3b3          	xor	t2,t2,s7
   11410:	00730333          	add	t1,t1,t2
   11414:	006acab3          	xor	s5,s5,t1
   11418:	008a9b93          	slli	s7,s5,0x8
   1141c:	018ada93          	srli	s5,s5,0x18
   11420:	017acab3          	xor	s5,s5,s7
   11424:	01540433          	add	s0,s0,s5
   11428:	0083c3b3          	xor	t2,t2,s0
   1142c:	00739b93          	slli	s7,t2,0x7
   11430:	0193d393          	srli	t2,t2,0x19
   11434:	0173c3b3          	xor	t2,t2,s7
   11438:	00780833          	add	a6,a6,t2
   1143c:	0109c9b3          	xor	s3,s3,a6
   11440:	01099b93          	slli	s7,s3,0x10
   11444:	0109d993          	srli	s3,s3,0x10
   11448:	0179c9b3          	xor	s3,s3,s7
   1144c:	013f8fb3          	add	t6,t6,s3
   11450:	01f3c3b3          	xor	t2,t2,t6
   11454:	00c39b93          	slli	s7,t2,0xc
   11458:	0143d393          	srli	t2,t2,0x14
   1145c:	0173c3b3          	xor	t2,t2,s7
   11460:	00780833          	add	a6,a6,t2
   11464:	0109c9b3          	xor	s3,s3,a6
   11468:	00899b93          	slli	s7,s3,0x8
   1146c:	0189d993          	srli	s3,s3,0x18
   11470:	0179c9b3          	xor	s3,s3,s7
   11474:	013f8fb3          	add	t6,t6,s3
   11478:	01f3c3b3          	xor	t2,t2,t6
   1147c:	00739b93          	slli	s7,t2,0x7
   11480:	0193d393          	srli	t2,t2,0x19
   11484:	0173c3b3          	xor	t2,t2,s7
   11488:	01c888b3          	add	a7,a7,t3
   1148c:	011a4a33          	xor	s4,s4,a7
   11490:	010a1b93          	slli	s7,s4,0x10
   11494:	010a5a13          	srli	s4,s4,0x10
   11498:	017a4a33          	xor	s4,s4,s7
   1149c:	01440433          	add	s0,s0,s4
   114a0:	008e4e33          	xor	t3,t3,s0
   114a4:	00ce1b93          	slli	s7,t3,0xc
   114a8:	014e5e13          	srli	t3,t3,0x14
   114ac:	017e4e33          	xor	t3,t3,s7
   114b0:	01c888b3          	add	a7,a7,t3
   114b4:	011a4a33          	xor	s4,s4,a7
   114b8:	008a1b93          	slli	s7,s4,0x8
   114bc:	018a5a13          	srli	s4,s4,0x18
   114c0:	017a4a33          	xor	s4,s4,s7
   114c4:	01440433          	add	s0,s0,s4
   114c8:	008e4e33          	xor	t3,t3,s0
   114cc:	007e1b93          	slli	s7,t3,0x7
   114d0:	019e5e13          	srli	t3,t3,0x19
   114d4:	017e4e33          	xor	t3,t3,s7
   114d8:	01d282b3          	add	t0,t0,t4
   114dc:	005acab3          	xor	s5,s5,t0
   114e0:	010a9b93          	slli	s7,s5,0x10
   114e4:	010ada93          	srli	s5,s5,0x10
   114e8:	017acab3          	xor	s5,s5,s7
   114ec:	015484b3          	add	s1,s1,s5
   114f0:	009eceb3          	xor	t4,t4,s1
   114f4:	00ce9b93          	slli	s7,t4,0xc
   114f8:	014ede93          	srli	t4,t4,0x14
   114fc:	017eceb3          	xor	t4,t4,s7
   11500:	01d282b3          	add	t0,t0,t4
   11504:	005acab3          	xor	s5,s5,t0
   11508:	008a9b93          	slli	s7,s5,0x8
   1150c:	018ada93          	srli	s5,s5,0x18
   11510:	017acab3          	xor	s5,s5,s7
   11514:	015484b3          	add	s1,s1,s5
   11518:	009eceb3          	xor	t4,t4,s1
   1151c:	007e9b93          	slli	s7,t4,0x7
   11520:	019ede93          	srli	t4,t4,0x19
   11524:	017eceb3          	xor	t4,t4,s7
   11528:	01e30333          	add	t1,t1,t5
   1152c:	006b4b33          	xor	s6,s6,t1
   11530:	010b1b93          	slli	s7,s6,0x10
   11534:	010b5b13          	srli	s6,s6,0x10
   11538:	017b4b33          	xor	s6,s6,s7
   1153c:	01690933          	add	s2,s2,s6
   11540:	012f4f33          	xor	t5,t5,s2
   11544:	00cf1b93          	slli	s7,t5,0xc
   11548:	014f5f13          	srli	t5,t5,0x14
   1154c:	017f4f33          	xor	t5,t5,s7
   11550:	01e30333          	add	t1,t1,t5
   11554:	006b4b33          	xor	s6,s6,t1
   11558:	008b1b93          	slli	s7,s6,0x8
   1155c:	018b5b13          	srli	s6,s6,0x18
   11560:	017b4b33          	xor	s6,s6,s7
   11564:	01690933          	add	s2,s2,s6
   11568:	012f4f33          	xor	t5,t5,s2
   1156c:	007f1b93          	slli	s7,t5,0x7
   11570:	019f5f13          	srli	t5,t5,0x19
   11574:	017f4f33          	xor	t5,t5,s7
   11578:	01c80833          	add	a6,a6,t3
   1157c:	010b4b33          	xor	s6,s6,a6
   11580:	010b1b93          	slli	s7,s6,0x10
   11584:	010b5b13          	srli	s6,s6,0x10
   11588:	017b4b33          	xor	s6,s6,s7
   1158c:	016484b3          	add	s1,s1,s6
   11590:	009e4e33          	xor	t3,t3,s1
   11594:	00ce1b93          	slli	s7,t3,0xc
   11598:	014e5e13          	srli	t3,t3,0x14
   1159c:	017e4e33          	xor	t3,t3,s7
   115a0:	01c80833          	add	a6,a6,t3
   115a4:	010b4b33          	xor	s6,s6,a6
   115a8:	008b1b93          	slli	s7,s6,0x8
   115ac:	018b5b13          	srli	s6,s6,0x18
   115b0:	017b4b33          	xor	s6,s6,s7
   115b4:	016484b3          	add	s1,s1,s6
   115b8:	009e4e33          	xor	t3,t3,s1
   115bc:	007e1b93          	slli	s7,t3,0x7
   115c0:	019e5e13          	srli	t3,t3,0x19
   115c4:	017e4e33          	xor	t3,t3,s7
   115c8:	01d888b3          	add	a7,a7,t4
   115cc:	0119c9b3          	xor	s3,s3,a7
   115d0:	01099b93          	slli	s7,s3,0x10
   115d4:	0109d993          	srli	s3,s3,0x10
   115d8:	0179c9b3          	xor	s3,s3,s7
   115dc:	01390933          	add	s2,s2,s3
   115e0:	012eceb3          	xor	t4,t4,s2
   115e4:	00ce9b93          	slli	s7,t4,0xc
   115e8:	014ede93          	srli	t4,t4,0x14
   115ec:	017eceb3          	xor	t4,t4,s7
   115f0:	01d888b3          	add	a7,a7,t4
   115f4:	0119c9b3          	xor	s3,s3,a7
   115f8:	00899b93          	slli	s7,s3,0x8
   115fc:	0189d993          	srli	s3,s3,0x18
   11600:	0179c9b3          	xor	s3,s3,s7
   11604:	01390933          	add	s2,s2,s3
   11608:	012eceb3          	xor	t4,t4,s2
   1160c:	007e9b93          	slli	s7,t4,0x7
   11610:	019ede93          	srli	t4,t4,0x19
   11614:	017eceb3          	xor	t4,t4,s7
   11618:	01e282b3          	add	t0,t0,t5
   1161c:	005a4a33          	xor	s4,s4,t0
   11620:	010a1b93          	slli	s7,s4,0x10
   11624:	010a5a13          	srli	s4,s4,0x10
   11628:	017a4a33          	xor	s4,s4,s7
   1162c:	014f8fb3          	add	t6,t6,s4
   11630:	01ff4f33          	xor	t5,t5,t6
   11634:	00cf1b93          	slli	s7,t5,0xc
   11638:	014f5f13          	srli	t5,t5,0x14
   1163c:	017f4f33          	xor	t5,t5,s7
   11640:	01e282b3          	add	t0,t0,t5
   11644:	005a4a33          	xor	s4,s4,t0
   11648:	008a1b93          	slli	s7,s4,0x8
   1164c:	018a5a13          	srli	s4,s4,0x18
   11650:	017a4a33          	xor	s4,s4,s7
   11654:	014f8fb3          	add	t6,t6,s4
   11658:	01ff4f33          	xor	t5,t5,t6
   1165c:	007f1b93          	slli	s7,t5,0x7
   11660:	019f5f13          	srli	t5,t5,0x19
   11664:	017f4f33          	xor	t5,t5,s7
   11668:	00730333          	add	t1,t1,t2
   1166c:	006acab3          	xor	s5,s5,t1
   11670:	010a9b93          	slli	s7,s5,0x10
   11674:	010ada93          	srli	s5,s5,0x10
   11678:	017acab3          	xor	s5,s5,s7
   1167c:	01540433          	add	s0,s0,s5
   11680:	0083c3b3          	xor	t2,t2,s0
   11684:	00c39b93          	slli	s7,t2,0xc
   11688:	0143d393          	srli	t2,t2,0x14
   1168c:	0173c3b3          	xor	t2,t2,s7
   11690:	00730333          	add	t1,t1,t2
   11694:	006acab3          	xor	s5,s5,t1
   11698:	008a9b93          	slli	s7,s5,0x8
   1169c:	018ada93          	srli	s5,s5,0x18
   116a0:	017acab3          	xor	s5,s5,s7
   116a4:	01540433          	add	s0,s0,s5
   116a8:	0083c3b3          	xor	t2,t2,s0
   116ac:	00739b93          	slli	s7,t2,0x7
   116b0:	0193d393          	srli	t2,t2,0x19
   116b4:	0173c3b3          	xor	t2,t2,s7
   116b8:	00780833          	add	a6,a6,t2
   116bc:	0109c9b3          	xor	s3,s3,a6
   116c0:	01099b93          	slli	s7,s3,0x10
   116c4:	0109d993          	srli	s3,s3,0x10
   116c8:	0179c9b3          	xor	s3,s3,s7
   116cc:	013f8fb3          	add	t6,t6,s3
   116d0:	01f3c3b3          	xor	t2,t2,t6
   116d4:	00c39b93          	slli	s7,t2,0xc
   116d8:	0143d393          	srli	t2,t2,0x14
   116dc:	0173c3b3          	xor	t2,t2,s7
   116e0:	00780833          	add	a6,a6,t2
   116e4:	0109c9b3          	xor	s3,s3,a6
   116e8:	00899b93          	slli	s7,s3,0x8
   116ec:	0189d993          	srli	s3,s3,0x18
   116f0:	0179c9b3          	xor	s3,s3,s7
   116f4:	013f8fb3          	add	t6,t6,s3
   116f8:	01f3c3b3          	xor	t2,t2,t6
   116fc:	00739b93          	slli	s7,t2,0x7
   11700:	0193d393          	srli	t2,t2,0x19
   11704:	0173c3b3          	xor	t2,t2,s7
   11708:	01c888b3          	add	a7,a7,t3
   1170c:	011a4a33          	xor	s4,s4,a7
   11710:	010a1b93          	slli	s7,s4,0x10
   11714:	010a5a13          	srli	s4,s4,0x10
   11718:	017a4a33          	xor	s4,s4,s7
   1171c:	01440433          	add	s0,s0,s4
   11720:	008e4e33          	xor	t3,t3,s0
   11724:	00ce1b93          	slli	s7,t3,0xc
   11728:	014e5e13          	srli	t3,t3,0x14
   1172c:	017e4e33          	xor	t3,t3,s7
   11730:	01c888b3          	add	a7,a7,t3
   11734:	011a4a33          	xor	s4,s4,a7
   11738:	008a1b93          	slli	s7,s4,0x8
   1173c:	018a5a13          	srli	s4,s4,0x18
   11740:	017a4a33          	xor	s4,s4,s7
   11744:	01440433          	add	s0,s0,s4
   11748:	008e4e33          	xor	t3,t3,s0
   1174c:	007e1b93          	slli	s7,t3,0x7
   11750:	019e5e13          	srli	t3,t3,0x19
   11754:	017e4e33          	xor	t3,t3,s7
   11758:	01d282b3          	add	t0,t0,t4
   1175c:	005acab3          	xor	s5,s5,t0
   11760:	010a9b93          	slli	s7,s5,0x10
   11764:	010ada93          	srli	s5,s5,0x10
   11768:	017acab3          	xor	s5,s5,s7
   1176c:	015484b3          	add	s1,s1,s5
   11770:	009eceb3          	xor	t4,t4,s1
   11774:	00ce9b93          	slli	s7,t4,0xc
   11778:	014ede93          	srli	t4,t4,0x14
   1177c:	017eceb3          	xor	t4,t4,s7
   11780:	01d282b3          	add	t0,t0,t4
   11784:	005acab3          	xor	s5,s5,t0
   11788:	008a9b93          	slli	s7,s5,0x8
   1178c:	018ada93          	srli	s5,s5,0x18
   11790:	017acab3          	xor	s5,s5,s7
   11794:	015484b3          	add	s1,s1,s5
   11798:	009eceb3          	xor	t4,t4,s1
   1179c:	007e9b93          	slli	s7,t4,0x7
   117a0:	019ede93          	srli	t4,t4,0x19
   117a4:	017eceb3          	xor	t4,t4,s7
   117a8:	01e30333          	add	t1,t1,t5
   117ac:	006b4b33          	xor	s6,s6,t1
   117b0:	010b1b93          	slli	s7,s6,0x10
   117b4:	010b5b13          	srli	s6,s6,0x10
   117b8:	017b4b33          	xor	s6,s6,s7
   117bc:	01690933          	add	s2,s2,s6
   117c0:	012f4f33          	xor	t5,t5,s2
   117c4:	00cf1b93          	slli	s7,t5,0xc
   117c8:	014f5f13          	srli	t5,t5,0x14
   117cc:	017f4f33          	xor	t5,t5,s7
   117d0:	01e30333          	add	t1,t1,t5
   117d4:	006b4b33          	xor	s6,s6,t1
   117d8:	008b1b93          	slli	s7,s6,0x8
   117dc:	018b5b13          	srli	s6,s6,0x18
   117e0:	017b4b33          	xor	s6,s6,s7
   117e4:	01690933          	add	s2,s2,s6
   117e8:	012f4f33          	xor	t5,t5,s2
   117ec:	007f1b93          	slli	s7,t5,0x7
   117f0:	019f5f13          	srli	t5,t5,0x19
   117f4:	017f4f33          	xor	t5,t5,s7
   117f8:	01c80833          	add	a6,a6,t3
   117fc:	010b4b33          	xor	s6,s6,a6
   11800:	010b1b93          	slli	s7,s6,0x10
   11804:	010b5b13          	srli	s6,s6,0x10
   11808:	017b4b33          	xor	s6,s6,s7
   1180c:	016484b3          	add	s1,s1,s6
   11810:	009e4e33          	xor	t3,t3,s1
   11814:	00ce1b93          	slli	s7,t3,0xc
   11818:	014e5e13          	srli	t3,t3,0x14
   1181c:	017e4e33          	xor	t3,t3,s7
   11820:	01c80833          	add	a6,a6,t3
   11824:	010b4b33          	xor	s6,s6,a6
   11828:	008b1b93          	slli	s7,s6,0x8
   1182c:	018b5b13          	srli	s6,s6,0x18
   11830:	017b4b33          	xor	s6,s6,s7
   11834:	016484b3          	add	s1,s1,s6
   11838:	009e4e33          	xor	t3,t3,s1
   1183c:	007e1b93          	slli	s7,t3,0x7
   11840:	019e5e13          	srli	t3,t3,0x19
   11844:	017e4e33          	xor	t3,t3,s7
   11848:	01d888b3          	add	a7,a7,t4
   1184c:	0119c9b3          	xor	s3,s3,a7
   11850:	01099b93          	slli	s7,s3,0x10
   11854:	0109d993          	srli	s3,s3,0x10
   11858:	0179c9b3          	xor	s3,s3,s7
   1185c:	01390933          	add	s2,s2,s3
   11860:	012eceb3          	xor	t4,t4,s2
   11864:	00ce9b93          	slli	s7,t4,0xc
   11868:	014ede93          	srli	t4,t4,0x14
   1186c:	017eceb3          	xor	t4,t4,s7
   11870:	01d888b3          	add	a7,a7,t4
   11874:	0119c9b3          	xor	s3,s3,a7
   11878:	00899b93          	slli	s7,s3,0x8
   1187c:	0189d993          	srli	s3,s3,0x18
   11880:	0179c9b3          	xor	s3,s3,s7
   11884:	01390933          	add	s2,s2,s3
   11888:	012eceb3          	xor	t4,t4,s2
   1188c:	007e9b93          	slli	s7,t4,0x7
   11890:	019ede93          	srli	t4,t4,0x19
   11894:	017eceb3          	xor	t4,t4,s7
   11898:	01e282b3          	add	t0,t0,t5
   1189c:	005a4a33          	xor	s4,s4,t0
   118a0:	010a1b93          	slli	s7,s4,0x10
   118a4:	010a5a13          	srli	s4,s4,0x10
   118a8:	017a4a33          	xor	s4,s4,s7
   118ac:	014f8fb3          	add	t6,t6,s4
   118b0:	01ff4f33          	xor	t5,t5,t6
   118b4:	00cf1b93          	slli	s7,t5,0xc
   118b8:	014f5f13          	srli	t5,t5,0x14
   118bc:	017f4f33          	xor	t5,t5,s7
   118c0:	01e282b3          	add	t0,t0,t5
   118c4:	005a4a33          	xor	s4,s4,t0
   118c8:	008a1b93          	slli	s7,s4,0x8
   118cc:	018a5a13          	srli	s4,s4,0x18
   118d0:	017a4a33          	xor	s4,s4,s7
   118d4:	014f8fb3          	add	t6,t6,s4
   118d8:	01ff4f33          	xor	t5,t5,t6
   118dc:	007f1b93          	slli	s7,t5,0x7
   118e0:	019f5f13          	srli	t5,t5,0x19
   118e4:	017f4f33          	xor	t5,t5,s7
   118e8:	00730333          	add	t1,t1,t2
   118ec:	006acab3          	xor	s5,s5,t1
   118f0:	010a9b93          	slli	s7,s5,0x10
   118f4:	010ada93          	srli	s5,s5,0x10
   118f8:	017acab3          	xor	s5,s5,s7
   118fc:	01540433          	add	s0,s0,s5
   11900:	0083c3b3          	xor	t2,t2,s0
   11904:	00c39b93          	slli	s7,t2,0xc
   11908:	0143d393          	srli	t2,t2,0x14
   1190c:	0173c3b3          	xor	t2,t2,s7
   11910:	00730333          	add	t1,t1,t2
   11914:	006acab3          	xor	s5,s5,t1
   11918:	008a9b93          	slli	s7,s5,0x8
   1191c:	018ada93          	srli	s5,s5,0x18
   11920:	017acab3          	xor	s5,s5,s7
   11924:	01540433          	add	s0,s0,s5
   11928:	0083c3b3          	xor	t2,t2,s0
   1192c:	00739b93          	slli	s7,t2,0x7
   11930:	0193d393          	srli	t2,t2,0x19
   11934:	0173c3b3          	xor	t2,t2,s7
   11938:	00780833          	add	a6,a6,t2
   1193c:	0109c9b3          	xor	s3,s3,a6
   11940:	01099b93          	slli	s7,s3,0x10
   11944:	0109d993          	srli	s3,s3,0x10
   11948:	0179c9b3          	xor	s3,s3,s7
   1194c:	013f8fb3          	add	t6,t6,s3
   11950:	01f3c3b3          	xor	t2,t2,t6
   11954:	00c39b93          	slli	s7,t2,0xc
   11958:	0143d393          	srli	t2,t2,0x14
   1195c:	0173c3b3          	xor	t2,t2,s7
   11960:	00780833          	add	a6,a6,t2
   11964:	0109c9b3          	xor	s3,s3,a6
   11968:	00899b93          	slli	s7,s3,0x8
   1196c:	0189d993          	srli	s3,s3,0x18
   11970:	0179c9b3          	xor	s3,s3,s7
   11974:	013f8fb3          	add	t6,t6,s3
   11978:	01f3c3b3          	xor	t2,t2,t6
   1197c:	00739b93          	slli	s7,t2,0x7
   11980:	0193d393          	srli	t2,t2,0x19
   11984:	0173c3b3          	xor	t2,t2,s7
   11988:	01c888b3          	add	a7,a7,t3
   1198c:	011a4a33          	xor	s4,s4,a7
   11990:	010a1b93          	slli	s7,s4,0x10
   11994:	010a5a13          	srli	s4,s4,0x10
   11998:	017a4a33          	xor	s4,s4,s7
   1199c:	01440433          	add	s0,s0,s4
   119a0:	008e4e33          	xor	t3,t3,s0
   119a4:	00ce1b93          	slli	s7,t3,0xc
   119a8:	014e5e13          	srli	t3,t3,0x14
   119ac:	017e4e33          	xor	t3,t3,s7
   119b0:	01c888b3          	add	a7,a7,t3
   119b4:	011a4a33          	xor	s4,s4,a7
   119b8:	008a1b93          	slli	s7,s4,0x8
   119bc:	018a5a13          	srli	s4,s4,0x18
   119c0:	017a4a33          	xor	s4,s4,s7
   119c4:	01440433          	add	s0,s0,s4
   119c8:	008e4e33          	xor	t3,t3,s0
   119cc:	007e1b93          	slli	s7,t3,0x7
   119d0:	019e5e13          	srli	t3,t3,0x19
   119d4:	017e4e33          	xor	t3,t3,s7
   119d8:	01d282b3          	add	t0,t0,t4
   119dc:	005acab3          	xor	s5,s5,t0
   119e0:	010a9b93          	slli	s7,s5,0x10
   119e4:	010ada93          	srli	s5,s5,0x10
   119e8:	017acab3          	xor	s5,s5,s7
   119ec:	015484b3          	add	s1,s1,s5
   119f0:	009eceb3          	xor	t4,t4,s1
   119f4:	00ce9b93          	slli	s7,t4,0xc
   119f8:	014ede93          	srli	t4,t4,0x14
   119fc:	017eceb3          	xor	t4,t4,s7
   11a00:	01d282b3          	add	t0,t0,t4
   11a04:	005acab3          	xor	s5,s5,t0
   11a08:	008a9b93          	slli	s7,s5,0x8
   11a0c:	018ada93          	srli	s5,s5,0x18
   11a10:	017acab3          	xor	s5,s5,s7
   11a14:	015484b3          	add	s1,s1,s5
   11a18:	009eceb3          	xor	t4,t4,s1
   11a1c:	007e9b93          	slli	s7,t4,0x7
   11a20:	019ede93          	srli	t4,t4,0x19
   11a24:	017eceb3          	xor	t4,t4,s7
   11a28:	01e30333          	add	t1,t1,t5
   11a2c:	006b4b33          	xor	s6,s6,t1
   11a30:	010b1b93          	slli	s7,s6,0x10
   11a34:	010b5b13          	srli	s6,s6,0x10
   11a38:	017b4b33          	xor	s6,s6,s7
   11a3c:	01690933          	add	s2,s2,s6
   11a40:	012f4f33          	xor	t5,t5,s2
   11a44:	00cf1b93          	slli	s7,t5,0xc
   11a48:	014f5f13          	srli	t5,t5,0x14
   11a4c:	017f4f33          	xor	t5,t5,s7
   11a50:	01e30333          	add	t1,t1,t5
   11a54:	006b4b33          	xor	s6,s6,t1
   11a58:	008b1b93          	slli	s7,s6,0x8
   11a5c:	018b5b13          	srli	s6,s6,0x18
   11a60:	017b4b33          	xor	s6,s6,s7
   11a64:	01690933          	add	s2,s2,s6
   11a68:	012f4f33          	xor	t5,t5,s2
   11a6c:	007f1b93          	slli	s7,t5,0x7
   11a70:	019f5f13          	srli	t5,t5,0x19
   11a74:	017f4f33          	xor	t5,t5,s7
   11a78:	01c80833          	add	a6,a6,t3
   11a7c:	010b4b33          	xor	s6,s6,a6
   11a80:	010b1b93          	slli	s7,s6,0x10
   11a84:	010b5b13          	srli	s6,s6,0x10
   11a88:	017b4b33          	xor	s6,s6,s7
   11a8c:	016484b3          	add	s1,s1,s6
   11a90:	009e4e33          	xor	t3,t3,s1
   11a94:	00ce1b93          	slli	s7,t3,0xc
   11a98:	014e5e13          	srli	t3,t3,0x14
   11a9c:	017e4e33          	xor	t3,t3,s7
   11aa0:	01c80833          	add	a6,a6,t3
   11aa4:	010b4b33          	xor	s6,s6,a6
   11aa8:	008b1b93          	slli	s7,s6,0x8
   11aac:	018b5b13          	srli	s6,s6,0x18
   11ab0:	017b4b33          	xor	s6,s6,s7
   11ab4:	016484b3          	add	s1,s1,s6
   11ab8:	009e4e33          	xor	t3,t3,s1
   11abc:	007e1b93          	slli	s7,t3,0x7
   11ac0:	019e5e13          	srli	t3,t3,0x19
   11ac4:	017e4e33          	xor	t3,t3,s7
   11ac8:	01d888b3          	add	a7,a7,t4
   11acc:	0119c9b3          	xor	s3,s3,a7
   11ad0:	01099b93          	slli	s7,s3,0x10
   11ad4:	0109d993          	srli	s3,s3,0x10
   11ad8:	0179c9b3          	xor	s3,s3,s7
   11adc:	01390933          	add	s2,s2,s3
   11ae0:	012eceb3          	xor	t4,t4,s2
   11ae4:	00ce9b93          	slli	s7,t4,0xc
   11ae8:	014ede93          	srli	t4,t4,0x14
   11aec:	017eceb3          	xor	t4,t4,s7
   11af0:	01d888b3          	add	a7,a7,t4
   11af4:	0119c9b3          	xor	s3,s3,a7
   11af8:	00899b93          	slli	s7,s3,0x8
   11afc:	0189d993          	srli	s3,s3,0x18
   11b00:	0179c9b3          	xor	s3,s3,s7
   11b04:	01390933          	add	s2,s2,s3
   11b08:	012eceb3          	xor	t4,t4,s2
   11b0c:	007e9b93          	slli	s7,t4,0x7
   11b10:	019ede93          	srli	t4,t4,0x19
   11b14:	017eceb3          	xor	t4,t4,s7
   11b18:	01e282b3          	add	t0,t0,t5
   11b1c:	005a4a33          	xor	s4,s4,t0
   11b20:	010a1b93          	slli	s7,s4,0x10
   11b24:	010a5a13          	srli	s4,s4,0x10
   11b28:	017a4a33          	xor	s4,s4,s7
   11b2c:	014f8fb3          	add	t6,t6,s4
   11b30:	01ff4f33          	xor	t5,t5,t6
   11b34:	00cf1b93          	slli	s7,t5,0xc
   11b38:	014f5f13          	srli	t5,t5,0x14
   11b3c:	017f4f33          	xor	t5,t5,s7
   11b40:	01e282b3          	add	t0,t0,t5
   11b44:	005a4a33          	xor	s4,s4,t0
   11b48:	008a1b93          	slli	s7,s4,0x8
   11b4c:	018a5a13          	srli	s4,s4,0x18
   11b50:	017a4a33          	xor	s4,s4,s7
   11b54:	014f8fb3          	add	t6,t6,s4
   11b58:	01ff4f33          	xor	t5,t5,t6
   11b5c:	007f1b93          	slli	s7,t5,0x7
   11b60:	019f5f13          	srli	t5,t5,0x19
   11b64:	017f4f33          	xor	t5,t5,s7
   11b68:	00730333          	add	t1,t1,t2
   11b6c:	006acab3          	xor	s5,s5,t1
   11b70:	010a9b93          	slli	s7,s5,0x10
   11b74:	010ada93          	srli	s5,s5,0x10
   11b78:	017acab3          	xor	s5,s5,s7
   11b7c:	01540433          	add	s0,s0,s5
   11b80:	0083c3b3          	xor	t2,t2,s0
   11b84:	00c39b93          	slli	s7,t2,0xc
   11b88:	0143d393          	srli	t2,t2,0x14
   11b8c:	0173c3b3          	xor	t2,t2,s7
   11b90:	00730333          	add	t1,t1,t2
   11b94:	006acab3          	xor	s5,s5,t1
   11b98:	008a9b93          	slli	s7,s5,0x8
   11b9c:	018ada93          	srli	s5,s5,0x18
   11ba0:	017acab3          	xor	s5,s5,s7
   11ba4:	01540433          	add	s0,s0,s5
   11ba8:	0083c3b3          	xor	t2,t2,s0
   11bac:	00739b93          	slli	s7,t2,0x7
   11bb0:	0193d393          	srli	t2,t2,0x19
   11bb4:	0173c3b3          	xor	t2,t2,s7
   11bb8:	00780833          	add	a6,a6,t2
   11bbc:	0109c9b3          	xor	s3,s3,a6
   11bc0:	01099b93          	slli	s7,s3,0x10
   11bc4:	0109d993          	srli	s3,s3,0x10
   11bc8:	0179c9b3          	xor	s3,s3,s7
   11bcc:	013f8fb3          	add	t6,t6,s3
   11bd0:	01f3c3b3          	xor	t2,t2,t6
   11bd4:	00c39b93          	slli	s7,t2,0xc
   11bd8:	0143d393          	srli	t2,t2,0x14
   11bdc:	0173c3b3          	xor	t2,t2,s7
   11be0:	00780833          	add	a6,a6,t2
   11be4:	0109c9b3          	xor	s3,s3,a6
   11be8:	00899b93          	slli	s7,s3,0x8
   11bec:	0189d993          	srli	s3,s3,0x18
   11bf0:	0179c9b3          	xor	s3,s3,s7
   11bf4:	013f8fb3          	add	t6,t6,s3
   11bf8:	01f3c3b3          	xor	t2,t2,t6
   11bfc:	00739b93          	slli	s7,t2,0x7
   11c00:	0193d393          	srli	t2,t2,0x19
   11c04:	0173c3b3          	xor	t2,t2,s7
   11c08:	01c888b3          	add	a7,a7,t3
   11c0c:	011a4a33          	xor	s4,s4,a7
   11c10:	010a1b93          	slli	s7,s4,0x10
   11c14:	010a5a13          	srli	s4,s4,0x10
   11c18:	017a4a33          	xor	s4,s4,s7
   11c1c:	01440433          	add	s0,s0,s4
   11c20:	008e4e33          	xor	t3,t3,s0
   11c24:	00ce1b93          	slli	s7,t3,0xc
   11c28:	014e5e13          	srli	t3,t3,0x14
   11c2c:	017e4e33          	xor	t3,t3,s7
   11c30:	01c888b3          	add	a7,a7,t3
   11c34:	011a4a33          	xor	s4,s4,a7
   11c38:	008a1b93          	slli	s7,s4,0x8
   11c3c:	018a5a13          	srli	s4,s4,0x18
   11c40:	017a4a33          	xor	s4,s4,s7
   11c44:	01440433          	add	s0,s0,s4
   11c48:	008e4e33          	xor	t3,t3,s0
   11c4c:	007e1b93          	slli	s7,t3,0x7
   11c50:	019e5e13          	srli	t3,t3,0x19
   11c54:	017e4e33          	xor	t3,t3,s7
   11c58:	01d282b3          	add	t0,t0,t4
   11c5c:	005acab3          	xor	s5,s5,t0
   11c60:	010a9b93          	slli	s7,s5,0x10
   11c64:	010ada93          	srli	s5,s5,0x10
   11c68:	017acab3          	xor	s5,s5,s7
   11c6c:	015484b3          	add	s1,s1,s5
   11c70:	009eceb3          	xor	t4,t4,s1
   11c74:	00ce9b93          	slli	s7,t4,0xc
   11c78:	014ede93          	srli	t4,t4,0x14
   11c7c:	017eceb3          	xor	t4,t4,s7
   11c80:	01d282b3          	add	t0,t0,t4
   11c84:	005acab3          	xor	s5,s5,t0
   11c88:	008a9b93          	slli	s7,s5,0x8
   11c8c:	018ada93          	srli	s5,s5,0x18
   11c90:	017acab3          	xor	s5,s5,s7
   11c94:	015484b3          	add	s1,s1,s5
   11c98:	009eceb3          	xor	t4,t4,s1
   11c9c:	007e9b93          	slli	s7,t4,0x7
   11ca0:	019ede93          	srli	t4,t4,0x19
   11ca4:	017eceb3          	xor	t4,t4,s7
   11ca8:	01e30333          	add	t1,t1,t5
   11cac:	006b4b33          	xor	s6,s6,t1
   11cb0:	010b1b93          	slli	s7,s6,0x10
   11cb4:	010b5b13          	srli	s6,s6,0x10
   11cb8:	017b4b33          	xor	s6,s6,s7
   11cbc:	01690933          	add	s2,s2,s6
   11cc0:	012f4f33          	xor	t5,t5,s2
   11cc4:	00cf1b93          	slli	s7,t5,0xc
   11cc8:	014f5f13          	srli	t5,t5,0x14
   11ccc:	017f4f33          	xor	t5,t5,s7
   11cd0:	01e30333          	add	t1,t1,t5
   11cd4:	006b4b33          	xor	s6,s6,t1
   11cd8:	008b1b93          	slli	s7,s6,0x8
   11cdc:	018b5b13          	srli	s6,s6,0x18
   11ce0:	017b4b33          	xor	s6,s6,s7
   11ce4:	01690933          	add	s2,s2,s6
   11ce8:	012f4f33          	xor	t5,t5,s2
   11cec:	007f1b93          	slli	s7,t5,0x7
   11cf0:	019f5f13          	srli	t5,t5,0x19
   11cf4:	017f4f33          	xor	t5,t5,s7
   11cf8:	01c80833          	add	a6,a6,t3
   11cfc:	010b4b33          	xor	s6,s6,a6
   11d00:	010b1b93          	slli	s7,s6,0x10
   11d04:	010b5b13          	srli	s6,s6,0x10
   11d08:	017b4b33          	xor	s6,s6,s7
   11d0c:	016484b3          	add	s1,s1,s6
   11d10:	009e4e33          	xor	t3,t3,s1
   11d14:	00ce1b93          	slli	s7,t3,0xc
   11d18:	014e5e13          	srli	t3,t3,0x14
   11d1c:	017e4e33          	xor	t3,t3,s7
   11d20:	01c80833          	add	a6,a6,t3
   11d24:	010b4b33          	xor	s6,s6,a6
   11d28:	008b1b93          	slli	s7,s6,0x8
   11d2c:	018b5b13          	srli	s6,s6,0x18
   11d30:	017b4b33          	xor	s6,s6,s7
   11d34:	016484b3          	add	s1,s1,s6
   11d38:	009e4e33          	xor	t3,t3,s1
   11d3c:	007e1b93          	slli	s7,t3,0x7
   11d40:	019e5e13          	srli	t3,t3,0x19
   11d44:	017e4e33          	xor	t3,t3,s7
   11d48:	01d888b3          	add	a7,a7,t4
   11d4c:	0119c9b3          	xor	s3,s3,a7
   11d50:	01099b93          	slli	s7,s3,0x10
   11d54:	0109d993          	srli	s3,s3,0x10
   11d58:	0179c9b3          	xor	s3,s3,s7
   11d5c:	01390933          	add	s2,s2,s3
   11d60:	012eceb3          	xor	t4,t4,s2
   11d64:	00ce9b93          	slli	s7,t4,0xc
   11d68:	014ede93          	srli	t4,t4,0x14
   11d6c:	017eceb3          	xor	t4,t4,s7
   11d70:	01d888b3          	add	a7,a7,t4
   11d74:	0119c9b3          	xor	s3,s3,a7
   11d78:	00899b93          	slli	s7,s3,0x8
   11d7c:	0189d993          	srli	s3,s3,0x18
   11d80:	0179c9b3          	xor	s3,s3,s7
   11d84:	01390933          	add	s2,s2,s3
   11d88:	012eceb3          	xor	t4,t4,s2
   11d8c:	007e9b93          	slli	s7,t4,0x7
   11d90:	019ede93          	srli	t4,t4,0x19
   11d94:	017eceb3          	xor	t4,t4,s7
   11d98:	01e282b3          	add	t0,t0,t5
   11d9c:	005a4a33          	xor	s4,s4,t0
   11da0:	010a1b93          	slli	s7,s4,0x10
   11da4:	010a5a13          	srli	s4,s4,0x10
   11da8:	017a4a33          	xor	s4,s4,s7
   11dac:	014f8fb3          	add	t6,t6,s4
   11db0:	01ff4f33          	xor	t5,t5,t6
   11db4:	00cf1b93          	slli	s7,t5,0xc
   11db8:	014f5f13          	srli	t5,t5,0x14
   11dbc:	017f4f33          	xor	t5,t5,s7
   11dc0:	01e282b3          	add	t0,t0,t5
   11dc4:	005a4a33          	xor	s4,s4,t0
   11dc8:	008a1b93          	slli	s7,s4,0x8
   11dcc:	018a5a13          	srli	s4,s4,0x18
   11dd0:	017a4a33          	xor	s4,s4,s7
   11dd4:	014f8fb3          	add	t6,t6,s4
   11dd8:	01ff4f33          	xor	t5,t5,t6
   11ddc:	007f1b93          	slli	s7,t5,0x7
   11de0:	019f5f13          	srli	t5,t5,0x19
   11de4:	017f4f33          	xor	t5,t5,s7
   11de8:	00730333          	add	t1,t1,t2
   11dec:	006acab3          	xor	s5,s5,t1
   11df0:	010a9b93          	slli	s7,s5,0x10
   11df4:	010ada93          	srli	s5,s5,0x10
   11df8:	017acab3          	xor	s5,s5,s7
   11dfc:	01540433          	add	s0,s0,s5
   11e00:	0083c3b3          	xor	t2,t2,s0
   11e04:	00c39b93          	slli	s7,t2,0xc
   11e08:	0143d393          	srli	t2,t2,0x14
   11e0c:	0173c3b3          	xor	t2,t2,s7
   11e10:	00730333          	add	t1,t1,t2
   11e14:	006acab3          	xor	s5,s5,t1
   11e18:	008a9b93          	slli	s7,s5,0x8
   11e1c:	018ada93          	srli	s5,s5,0x18
   11e20:	017acab3          	xor	s5,s5,s7
   11e24:	01540433          	add	s0,s0,s5
   11e28:	0083c3b3          	xor	t2,t2,s0
   11e2c:	00739b93          	slli	s7,t2,0x7
   11e30:	0193d393          	srli	t2,t2,0x19
   11e34:	0173c3b3          	xor	t2,t2,s7
   11e38:	00780833          	add	a6,a6,t2
   11e3c:	0109c9b3          	xor	s3,s3,a6
   11e40:	01099b93          	slli	s7,s3,0x10
   11e44:	0109d993          	srli	s3,s3,0x10
   11e48:	0179c9b3          	xor	s3,s3,s7
   11e4c:	013f8fb3          	add	t6,t6,s3
   11e50:	01f3c3b3          	xor	t2,t2,t6
   11e54:	00c39b93          	slli	s7,t2,0xc
   11e58:	0143d393          	srli	t2,t2,0x14
   11e5c:	0173c3b3          	xor	t2,t2,s7
   11e60:	00780833          	add	a6,a6,t2
   11e64:	0109c9b3          	xor	s3,s3,a6
   11e68:	00899b93          	slli	s7,s3,0x8
   11e6c:	0189d993          	srli	s3,s3,0x18
   11e70:	0179c9b3          	xor	s3,s3,s7
   11e74:	013f8fb3          	add	t6,t6,s3
   11e78:	01f3c3b3          	xor	t2,t2,t6
   11e7c:	00739b93          	slli	s7,t2,0x7
   11e80:	0193d393          	srli	t2,t2,0x19
   11e84:	0173c3b3          	xor	t2,t2,s7
   11e88:	01c888b3          	add	a7,a7,t3
   11e8c:	011a4a33          	xor	s4,s4,a7
   11e90:	010a1b93          	slli	s7,s4,0x10
   11e94:	010a5a13          	srli	s4,s4,0x10
   11e98:	017a4a33          	xor	s4,s4,s7
   11e9c:	01440433          	add	s0,s0,s4
   11ea0:	008e4e33          	xor	t3,t3,s0
   11ea4:	00ce1b93          	slli	s7,t3,0xc
   11ea8:	014e5e13          	srli	t3,t3,0x14
   11eac:	017e4e33          	xor	t3,t3,s7
   11eb0:	01c888b3          	add	a7,a7,t3
   11eb4:	011a4a33          	xor	s4,s4,a7
   11eb8:	008a1b93          	slli	s7,s4,0x8
   11ebc:	018a5a13          	srli	s4,s4,0x18
   11ec0:	017a4a33          	xor	s4,s4,s7
   11ec4:	01440433          	add	s0,s0,s4
   11ec8:	008e4e33          	xor	t3,t3,s0
   11ecc:	007e1b93          	slli	s7,t3,0x7
   11ed0:	019e5e13          	srli	t3,t3,0x19
   11ed4:	017e4e33          	xor	t3,t3,s7
   11ed8:	01d282b3          	add	t0,t0,t4
   11edc:	005acab3          	xor	s5,s5,t0
   11ee0:	010a9b93          	slli	s7,s5,0x10
   11ee4:	010ada93          	srli	s5,s5,0x10
   11ee8:	017acab3          	xor	s5,s5,s7
   11eec:	015484b3          	add	s1,s1,s5
   11ef0:	009eceb3          	xor	t4,t4,s1
   11ef4:	00ce9b93          	slli	s7,t4,0xc
   11ef8:	014ede93          	srli	t4,t4,0x14
   11efc:	017eceb3          	xor	t4,t4,s7
   11f00:	01d282b3          	add	t0,t0,t4
   11f04:	005acab3          	xor	s5,s5,t0
   11f08:	008a9b93          	slli	s7,s5,0x8
   11f0c:	018ada93          	srli	s5,s5,0x18
   11f10:	017acab3          	xor	s5,s5,s7
   11f14:	015484b3          	add	s1,s1,s5
   11f18:	009eceb3          	xor	t4,t4,s1
   11f1c:	007e9b93          	slli	s7,t4,0x7
   11f20:	019ede93          	srli	t4,t4,0x19
   11f24:	017eceb3          	xor	t4,t4,s7
   11f28:	01e30333          	add	t1,t1,t5
   11f2c:	006b4b33          	xor	s6,s6,t1
   11f30:	010b1b93          	slli	s7,s6,0x10
   11f34:	010b5b13          	srli	s6,s6,0x10
   11f38:	017b4b33          	xor	s6,s6,s7
   11f3c:	01690933          	add	s2,s2,s6
   11f40:	012f4f33          	xor	t5,t5,s2
   11f44:	00cf1b93          	slli	s7,t5,0xc
   11f48:	014f5f13          	srli	t5,t5,0x14
   11f4c:	017f4f33          	xor	t5,t5,s7
   11f50:	01e30333          	add	t1,t1,t5
   11f54:	006b4b33          	xor	s6,s6,t1
   11f58:	008b1b93          	slli	s7,s6,0x8
   11f5c:	018b5b13          	srli	s6,s6,0x18
   11f60:	017b4b33          	xor	s6,s6,s7
   11f64:	01690933          	add	s2,s2,s6
   11f68:	012f4f33          	xor	t5,t5,s2
   11f6c:	007f1b93          	slli	s7,t5,0x7
   11f70:	019f5f13          	srli	t5,t5,0x19
   11f74:	017f4f33          	xor	t5,t5,s7
   11f78:	01c80833          	add	a6,a6,t3
   11f7c:	010b4b33          	xor	s6,s6,a6
   11f80:	010b1b93          	slli	s7,s6,0x10
   11f84:	010b5b13          	srli	s6,s6,0x10
   11f88:	017b4b33          	xor	s6,s6,s7
   11f8c:	016484b3          	add	s1,s1,s6
   11f90:	009e4e33          	xor	t3,t3,s1
   11f94:	00ce1b93          	slli	s7,t3,0xc
   11f98:	014e5e13          	srli	t3,t3,0x14
   11f9c:	017e4e33          	xor	t3,t3,s7
   11fa0:	01c80833          	add	a6,a6,t3
   11fa4:	010b4b33          	xor	s6,s6,a6
   11fa8:	008b1b93          	slli	s7,s6,0x8
   11fac:	018b5b13          	srli	s6,s6,0x18
   11fb0:	017b4b33          	xor	s6,s6,s7
   11fb4:	016484b3          	add	s1,s1,s6
   11fb8:	009e4e33          	xor	t3,t3,s1
   11fbc:	007e1b93          	slli	s7,t3,0x7
   11fc0:	019e5e13          	srli	t3,t3,0x19
   11fc4:	017e4e33          	xor	t3,t3,s7
   11fc8:	01d888b3          	add	a7,a7,t4
   11fcc:	0119c9b3          	xor	s3,s3,a7
   11fd0:	01099b93          	slli	s7,s3,0x10
   11fd4:	0109d993          	srli	s3,s3,0x10
   11fd8:	0179c9b3          	xor	s3,s3,s7
   11fdc:	01390933          	add	s2,s2,s3
   11fe0:	012eceb3          	xor	t4,t4,s2
   11fe4:	00ce9b93          	slli	s7,t4,0xc
   11fe8:	014ede93          	srli	t4,t4,0x14
   11fec:	017eceb3          	xor	t4,t4,s7
   11ff0:	01d888b3          	add	a7,a7,t4
   11ff4:	0119c9b3          	xor	s3,s3,a7
   11ff8:	00899b93          	slli	s7,s3,0x8
   11ffc:	0189d993          	srli	s3,s3,0x18
   12000:	0179c9b3          	xor	s3,s3,s7
   12004:	01390933          	add	s2,s2,s3
   12008:	012eceb3          	xor	t4,t4,s2
   1200c:	007e9b93          	slli	s7,t4,0x7
   12010:	019ede93          	srli	t4,t4,0x19
   12014:	017eceb3          	xor	t4,t4,s7
   12018:	01e282b3          	add	t0,t0,t5
   1201c:	005a4a33          	xor	s4,s4,t0
   12020:	010a1b93          	slli	s7,s4,0x10
   12024:	010a5a13          	srli	s4,s4,0x10
   12028:	017a4a33          	xor	s4,s4,s7
   1202c:	014f8fb3          	add	t6,t6,s4
   12030:	01ff4f33          	xor	t5,t5,t6
   12034:	00cf1b93          	slli	s7,t5,0xc
   12038:	014f5f13          	srli	t5,t5,0x14
   1203c:	017f4f33          	xor	t5,t5,s7
   12040:	01e282b3          	add	t0,t0,t5
   12044:	005a4a33          	xor	s4,s4,t0
   12048:	008a1b93          	slli	s7,s4,0x8
   1204c:	018a5a13          	srli	s4,s4,0x18
   12050:	017a4a33          	xor	s4,s4,s7
   12054:	014f8fb3          	add	t6,t6,s4
   12058:	01ff4f33          	xor	t5,t5,t6
   1205c:	007f1b93          	slli	s7,t5,0x7
   12060:	019f5f13          	srli	t5,t5,0x19
   12064:	017f4f33          	xor	t5,t5,s7
   12068:	00730333          	add	t1,t1,t2
   1206c:	006acab3          	xor	s5,s5,t1
   12070:	010a9b93          	slli	s7,s5,0x10
   12074:	010ada93          	srli	s5,s5,0x10
   12078:	017acab3          	xor	s5,s5,s7
   1207c:	01540433          	add	s0,s0,s5
   12080:	0083c3b3          	xor	t2,t2,s0
   12084:	00c39b93          	slli	s7,t2,0xc
   12088:	0143d393          	srli	t2,t2,0x14
   1208c:	0173c3b3          	xor	t2,t2,s7
   12090:	00730333          	add	t1,t1,t2
   12094:	006acab3          	xor	s5,s5,t1
   12098:	008a9b93          	slli	s7,s5,0x8
   1209c:	018ada93          	srli	s5,s5,0x18
   120a0:	017acab3          	xor	s5,s5,s7
   120a4:	01540433          	add	s0,s0,s5
   120a8:	0083c3b3          	xor	t2,t2,s0
   120ac:	00739b93          	slli	s7,t2,0x7
   120b0:	0193d393          	srli	t2,t2,0x19
   120b4:	0173c3b3          	xor	t2,t2,s7
   120b8:	00780833          	add	a6,a6,t2
   120bc:	0109c9b3          	xor	s3,s3,a6
   120c0:	01099b93          	slli	s7,s3,0x10
   120c4:	0109d993          	srli	s3,s3,0x10
   120c8:	0179c9b3          	xor	s3,s3,s7
   120cc:	013f8fb3          	add	t6,t6,s3
   120d0:	01f3c3b3          	xor	t2,t2,t6
   120d4:	00c39b93          	slli	s7,t2,0xc
   120d8:	0143d393          	srli	t2,t2,0x14
   120dc:	0173c3b3          	xor	t2,t2,s7
   120e0:	00780833          	add	a6,a6,t2
   120e4:	0109c9b3          	xor	s3,s3,a6
   120e8:	00899b93          	slli	s7,s3,0x8
   120ec:	0189d993          	srli	s3,s3,0x18
   120f0:	0179c9b3          	xor	s3,s3,s7
   120f4:	013f8fb3          	add	t6,t6,s3
   120f8:	01f3c3b3          	xor	t2,t2,t6
   120fc:	00739b93          	slli	s7,t2,0x7
   12100:	0193d393          	srli	t2,t2,0x19
   12104:	0173c3b3          	xor	t2,t2,s7
   12108:	01c888b3          	add	a7,a7,t3
   1210c:	011a4a33          	xor	s4,s4,a7
   12110:	010a1b93          	slli	s7,s4,0x10
   12114:	010a5a13          	srli	s4,s4,0x10
   12118:	017a4a33          	xor	s4,s4,s7
   1211c:	01440433          	add	s0,s0,s4
   12120:	008e4e33          	xor	t3,t3,s0
   12124:	00ce1b93          	slli	s7,t3,0xc
   12128:	014e5e13          	srli	t3,t3,0x14
   1212c:	017e4e33          	xor	t3,t3,s7
   12130:	01c888b3          	add	a7,a7,t3
   12134:	011a4a33          	xor	s4,s4,a7
   12138:	008a1b93          	slli	s7,s4,0x8
   1213c:	018a5a13          	srli	s4,s4,0x18
   12140:	017a4a33          	xor	s4,s4,s7
   12144:	01440433          	add	s0,s0,s4
   12148:	008e4e33          	xor	t3,t3,s0
   1214c:	007e1b93          	slli	s7,t3,0x7
   12150:	019e5e13          	srli	t3,t3,0x19
   12154:	017e4e33          	xor	t3,t3,s7
   12158:	01d282b3          	add	t0,t0,t4
   1215c:	005acab3          	xor	s5,s5,t0
   12160:	010a9b93          	slli	s7,s5,0x10
   12164:	010ada93          	srli	s5,s5,0x10
   12168:	017acab3          	xor	s5,s5,s7
   1216c:	015484b3          	add	s1,s1,s5
   12170:	009eceb3          	xor	t4,t4,s1
   12174:	00ce9b93          	slli	s7,t4,0xc
   12178:	014ede93          	srli	t4,t4,0x14
   1217c:	017eceb3          	xor	t4,t4,s7
   12180:	01d282b3          	add	t0,t0,t4
   12184:	005acab3          	xor	s5,s5,t0
   12188:	008a9b93          	slli	s7,s5,0x8
   1218c:	018ada93          	srli	s5,s5,0x18
   12190:	017acab3          	xor	s5,s5,s7
   12194:	015484b3          	add	s1,s1,s5
   12198:	009eceb3          	xor	t4,t4,s1
   1219c:	007e9b93          	slli	s7,t4,0x7
   121a0:	019ede93          	srli	t4,t4,0x19
   121a4:	017eceb3          	xor	t4,t4,s7
   121a8:	01e30333          	add	t1,t1,t5
   121ac:	006b4b33          	xor	s6,s6,t1
   121b0:	010b1b93          	slli	s7,s6,0x10
   121b4:	010b5b13          	srli	s6,s6,0x10
   121b8:	017b4b33          	xor	s6,s6,s7
   121bc:	01690933          	add	s2,s2,s6
   121c0:	012f4f33          	xor	t5,t5,s2
   121c4:	00cf1b93          	slli	s7,t5,0xc
   121c8:	014f5f13          	srli	t5,t5,0x14
   121cc:	017f4f33          	xor	t5,t5,s7
   121d0:	01e30333          	add	t1,t1,t5
   121d4:	006b4b33          	xor	s6,s6,t1
   121d8:	008b1b93          	slli	s7,s6,0x8
   121dc:	018b5b13          	srli	s6,s6,0x18
   121e0:	017b4b33          	xor	s6,s6,s7
   121e4:	01690933          	add	s2,s2,s6
   121e8:	012f4f33          	xor	t5,t5,s2
   121ec:	007f1b93          	slli	s7,t5,0x7
   121f0:	019f5f13          	srli	t5,t5,0x19
   121f4:	017f4f33          	xor	t5,t5,s7
   121f8:	01c80833          	add	a6,a6,t3
   121fc:	010b4b33          	xor	s6,s6,a6
   12200:	010b1b93          	slli	s7,s6,0x10
   12204:	010b5b13          	srli	s6,s6,0x10
   12208:	017b4b33          	xor	s6,s6,s7
   1220c:	016484b3          	add	s1,s1,s6
   12210:	009e4e33          	xor	t3,t3,s1
   12214:	00ce1b93          	slli	s7,t3,0xc
   12218:	014e5e13          	srli	t3,t3,0x14
   1221c:	017e4e33          	xor	t3,t3,s7
   12220:	01c80833          	add	a6,a6,t3
   12224:	010b4b33          	xor	s6,s6,a6
   12228:	008b1b93          	slli	s7,s6,0x8
   1222c:	018b5b13          	srli	s6,s6,0x18
   12230:	017b4b33          	xor	s6,s6,s7
   12234:	016484b3          	add	s1,s1,s6
   12238:	009e4e33          	xor	t3,t3,s1
   1223c:	007e1b93          	slli	s7,t3,0x7
   12240:	019e5e13          	srli	t3,t3,0x19
   12244:	017e4e33          	xor	t3,t3,s7
   12248:	01d888b3          	add	a7,a7,t4
   1224c:	0119c9b3          	xor	s3,s3,a7
   12250:	01099b93          	slli	s7,s3,0x10
   12254:	0109d993          	srli	s3,s3,0x10
   12258:	0179c9b3          	xor	s3,s3,s7
   1225c:	01390933          	add	s2,s2,s3
   12260:	012eceb3          	xor	t4,t4,s2
   12264:	00ce9b93          	slli	s7,t4,0xc
   12268:	014ede93          	srli	t4,t4,0x14
   1226c:	017eceb3          	xor	t4,t4,s7
   12270:	01d888b3          	add	a7,a7,t4
   12274:	0119c9b3          	xor	s3,s3,a7
   12278:	00899b93          	slli	s7,s3,0x8
   1227c:	0189d993          	srli	s3,s3,0x18
   12280:	0179c9b3          	xor	s3,s3,s7
   12284:	01390933          	add	s2,s2,s3
   12288:	012eceb3          	xor	t4,t4,s2
   1228c:	007e9b93          	slli	s7,t4,0x7
   12290:	019ede93          	srli	t4,t4,0x19
   12294:	017eceb3          	xor	t4,t4,s7
   12298:	01e282b3          	add	t0,t0,t5
   1229c:	005a4a33          	xor	s4,s4,t0
   122a0:	010a1b93          	slli	s7,s4,0x10
   122a4:	010a5a13          	srli	s4,s4,0x10
   122a8:	017a4a33          	xor	s4,s4,s7
   122ac:	014f8fb3          	add	t6,t6,s4
   122b0:	01ff4f33          	xor	t5,t5,t6
   122b4:	00cf1b93          	slli	s7,t5,0xc
   122b8:	014f5f13          	srli	t5,t5,0x14
   122bc:	017f4f33          	xor	t5,t5,s7
   122c0:	01e282b3          	add	t0,t0,t5
   122c4:	005a4a33          	xor	s4,s4,t0
   122c8:	008a1b93          	slli	s7,s4,0x8
   122cc:	018a5a13          	srli	s4,s4,0x18
   122d0:	017a4a33          	xor	s4,s4,s7
   122d4:	014f8fb3          	add	t6,t6,s4
   122d8:	01ff4f33          	xor	t5,t5,t6
   122dc:	007f1b93          	slli	s7,t5,0x7
   122e0:	019f5f13          	srli	t5,t5,0x19
   122e4:	017f4f33          	xor	t5,t5,s7
   122e8:	00730333          	add	t1,t1,t2
   122ec:	006acab3          	xor	s5,s5,t1
   122f0:	010a9b93          	slli	s7,s5,0x10
   122f4:	010ada93          	srli	s5,s5,0x10
   122f8:	017acab3          	xor	s5,s5,s7
   122fc:	01540433          	add	s0,s0,s5
   12300:	0083c3b3          	xor	t2,t2,s0
   12304:	00c39b93          	slli	s7,t2,0xc
   12308:	0143d393          	srli	t2,t2,0x14
   1230c:	0173c3b3          	xor	t2,t2,s7
   12310:	00730333          	add	t1,t1,t2
   12314:	006acab3          	xor	s5,s5,t1
   12318:	008a9b93          	slli	s7,s5,0x8
   1231c:	018ada93          	srli	s5,s5,0x18
   12320:	017acab3          	xor	s5,s5,s7
   12324:	01540433          	add	s0,s0,s5
   12328:	0083c3b3          	xor	t2,t2,s0
   1232c:	00739b93          	slli	s7,t2,0x7
   12330:	0193d393          	srli	t2,t2,0x19
   12334:	0173c3b3          	xor	t2,t2,s7
   12338:	000c2b83          	lw	s7,0(s8)
   1233c:	004c2c83          	lw	s9,4(s8)
   12340:	01780833          	add	a6,a6,s7
   12344:	019888b3          	add	a7,a7,s9
   12348:	008c2b83          	lw	s7,8(s8)
   1234c:	00cc2c83          	lw	s9,12(s8)
   12350:	017282b3          	add	t0,t0,s7
   12354:	01930333          	add	t1,t1,s9
   12358:	0006ab83          	lw	s7,0(a3)
   1235c:	0046ac83          	lw	s9,4(a3)
   12360:	017383b3          	add	t2,t2,s7
   12364:	019e0e33          	add	t3,t3,s9
   12368:	0086ab83          	lw	s7,8(a3)
   1236c:	00c6ac83          	lw	s9,12(a3)
   12370:	017e8eb3          	add	t4,t4,s7
   12374:	019f0f33          	add	t5,t5,s9
   12378:	0106ab83          	lw	s7,16(a3)
   1237c:	0146ac83          	lw	s9,20(a3)
   12380:	017f8fb3          	add	t6,t6,s7
   12384:	01940433          	add	s0,s0,s9
   12388:	0186ab83          	lw	s7,24(a3)
   1238c:	01c6ac83          	lw	s9,28(a3)
   12390:	017484b3          	add	s1,s1,s7
   12394:	01990933          	add	s2,s2,s9
   12398:	00f989b3          	add	s3,s3,a5
   1239c:	00072b83          	lw	s7,0(a4)
   123a0:	00472c83          	lw	s9,4(a4)
   123a4:	017a0a33          	add	s4,s4,s7
   123a8:	00872b83          	lw	s7,8(a4)
   123ac:	019a8ab3          	add	s5,s5,s9
   123b0:	017b0b33          	add	s6,s6,s7
   123b4:	0005ab83          	lw	s7,0(a1)
   123b8:	0045ac03          	lw	s8,4(a1)
   123bc:	01784833          	xor	a6,a6,s7
   123c0:	0188c8b3          	xor	a7,a7,s8
   123c4:	0085ab83          	lw	s7,8(a1)
   123c8:	00c5ac03          	lw	s8,12(a1)
   123cc:	0172c2b3          	xor	t0,t0,s7
   123d0:	01834333          	xor	t1,t1,s8
   123d4:	0105ab83          	lw	s7,16(a1)
   123d8:	0145ac03          	lw	s8,20(a1)
   123dc:	0173c3b3          	xor	t2,t2,s7
   123e0:	018e4e33          	xor	t3,t3,s8
   123e4:	0185ab83          	lw	s7,24(a1)
   123e8:	01c5ac03          	lw	s8,28(a1)
   123ec:	017eceb3          	xor	t4,t4,s7
   123f0:	018f4f33          	xor	t5,t5,s8
   123f4:	0205ab83          	lw	s7,32(a1)
   123f8:	0245ac03          	lw	s8,36(a1)
   123fc:	017fcfb3          	xor	t6,t6,s7
   12400:	01844433          	xor	s0,s0,s8
   12404:	0285ab83          	lw	s7,40(a1)
   12408:	02c5ac03          	lw	s8,44(a1)
   1240c:	0174c4b3          	xor	s1,s1,s7
   12410:	01894933          	xor	s2,s2,s8
   12414:	0305ab83          	lw	s7,48(a1)
   12418:	0345ac03          	lw	s8,52(a1)
   1241c:	0179c9b3          	xor	s3,s3,s7
   12420:	018a4a33          	xor	s4,s4,s8
   12424:	0385ab83          	lw	s7,56(a1)
   12428:	03c5ac03          	lw	s8,60(a1)
   1242c:	017acab3          	xor	s5,s5,s7
   12430:	018b4b33          	xor	s6,s6,s8
   12434:	00002c17          	auipc	s8,0x2
   12438:	4fcc0c13          	addi	s8,s8,1276 # 14930 <chacha20constants>
   1243c:	01052023          	sw	a6,0(a0)
   12440:	01152223          	sw	a7,4(a0)
   12444:	00552423          	sw	t0,8(a0)
   12448:	00652623          	sw	t1,12(a0)
   1244c:	00752823          	sw	t2,16(a0)
   12450:	01c52a23          	sw	t3,20(a0)
   12454:	01d52c23          	sw	t4,24(a0)
   12458:	01e52e23          	sw	t5,28(a0)
   1245c:	03f52023          	sw	t6,32(a0)
   12460:	02852223          	sw	s0,36(a0)
   12464:	02952423          	sw	s1,40(a0)
   12468:	03252623          	sw	s2,44(a0)
   1246c:	03352823          	sw	s3,48(a0)
   12470:	03452a23          	sw	s4,52(a0)
   12474:	03552c23          	sw	s5,56(a0)
   12478:	03652e23          	sw	s6,60(a0)
   1247c:	04050513          	addi	a0,a0,64
   12480:	04058593          	addi	a1,a1,64
   12484:	fc060613          	addi	a2,a2,-64
   12488:	00178793          	addi	a5,a5,1
   1248c:	d60fe06f          	j	109ec <chacha20+0x34>
   12490:	00c04463          	bgtz	a2,12498 <chacha20+0x1ae0>
   12494:	5510106f          	j	141e4 <chacha20+0x382c>
   12498:	000c2803          	lw	a6,0(s8)
   1249c:	004c2883          	lw	a7,4(s8)
   124a0:	008c2283          	lw	t0,8(s8)
   124a4:	00cc2303          	lw	t1,12(s8)
   124a8:	0006a383          	lw	t2,0(a3)
   124ac:	0046ae03          	lw	t3,4(a3)
   124b0:	0086ae83          	lw	t4,8(a3)
   124b4:	00c6af03          	lw	t5,12(a3)
   124b8:	0106af83          	lw	t6,16(a3)
   124bc:	0146a403          	lw	s0,20(a3)
   124c0:	0186a483          	lw	s1,24(a3)
   124c4:	01c6a903          	lw	s2,28(a3)
   124c8:	00078993          	mv	s3,a5
   124cc:	00072a03          	lw	s4,0(a4)
   124d0:	00472a83          	lw	s5,4(a4)
   124d4:	00872b03          	lw	s6,8(a4)
   124d8:	00780833          	add	a6,a6,t2
   124dc:	0109c9b3          	xor	s3,s3,a6
   124e0:	01099b93          	slli	s7,s3,0x10
   124e4:	0109d993          	srli	s3,s3,0x10
   124e8:	0179c9b3          	xor	s3,s3,s7
   124ec:	013f8fb3          	add	t6,t6,s3
   124f0:	01f3c3b3          	xor	t2,t2,t6
   124f4:	00c39b93          	slli	s7,t2,0xc
   124f8:	0143d393          	srli	t2,t2,0x14
   124fc:	0173c3b3          	xor	t2,t2,s7
   12500:	00780833          	add	a6,a6,t2
   12504:	0109c9b3          	xor	s3,s3,a6
   12508:	00899b93          	slli	s7,s3,0x8
   1250c:	0189d993          	srli	s3,s3,0x18
   12510:	0179c9b3          	xor	s3,s3,s7
   12514:	013f8fb3          	add	t6,t6,s3
   12518:	01f3c3b3          	xor	t2,t2,t6
   1251c:	00739b93          	slli	s7,t2,0x7
   12520:	0193d393          	srli	t2,t2,0x19
   12524:	0173c3b3          	xor	t2,t2,s7
   12528:	01c888b3          	add	a7,a7,t3
   1252c:	011a4a33          	xor	s4,s4,a7
   12530:	010a1b93          	slli	s7,s4,0x10
   12534:	010a5a13          	srli	s4,s4,0x10
   12538:	017a4a33          	xor	s4,s4,s7
   1253c:	01440433          	add	s0,s0,s4
   12540:	008e4e33          	xor	t3,t3,s0
   12544:	00ce1b93          	slli	s7,t3,0xc
   12548:	014e5e13          	srli	t3,t3,0x14
   1254c:	017e4e33          	xor	t3,t3,s7
   12550:	01c888b3          	add	a7,a7,t3
   12554:	011a4a33          	xor	s4,s4,a7
   12558:	008a1b93          	slli	s7,s4,0x8
   1255c:	018a5a13          	srli	s4,s4,0x18
   12560:	017a4a33          	xor	s4,s4,s7
   12564:	01440433          	add	s0,s0,s4
   12568:	008e4e33          	xor	t3,t3,s0
   1256c:	007e1b93          	slli	s7,t3,0x7
   12570:	019e5e13          	srli	t3,t3,0x19
   12574:	017e4e33          	xor	t3,t3,s7
   12578:	01d282b3          	add	t0,t0,t4
   1257c:	005acab3          	xor	s5,s5,t0
   12580:	010a9b93          	slli	s7,s5,0x10
   12584:	010ada93          	srli	s5,s5,0x10
   12588:	017acab3          	xor	s5,s5,s7
   1258c:	015484b3          	add	s1,s1,s5
   12590:	009eceb3          	xor	t4,t4,s1
   12594:	00ce9b93          	slli	s7,t4,0xc
   12598:	014ede93          	srli	t4,t4,0x14
   1259c:	017eceb3          	xor	t4,t4,s7
   125a0:	01d282b3          	add	t0,t0,t4
   125a4:	005acab3          	xor	s5,s5,t0
   125a8:	008a9b93          	slli	s7,s5,0x8
   125ac:	018ada93          	srli	s5,s5,0x18
   125b0:	017acab3          	xor	s5,s5,s7
   125b4:	015484b3          	add	s1,s1,s5
   125b8:	009eceb3          	xor	t4,t4,s1
   125bc:	007e9b93          	slli	s7,t4,0x7
   125c0:	019ede93          	srli	t4,t4,0x19
   125c4:	017eceb3          	xor	t4,t4,s7
   125c8:	01e30333          	add	t1,t1,t5
   125cc:	006b4b33          	xor	s6,s6,t1
   125d0:	010b1b93          	slli	s7,s6,0x10
   125d4:	010b5b13          	srli	s6,s6,0x10
   125d8:	017b4b33          	xor	s6,s6,s7
   125dc:	01690933          	add	s2,s2,s6
   125e0:	012f4f33          	xor	t5,t5,s2
   125e4:	00cf1b93          	slli	s7,t5,0xc
   125e8:	014f5f13          	srli	t5,t5,0x14
   125ec:	017f4f33          	xor	t5,t5,s7
   125f0:	01e30333          	add	t1,t1,t5
   125f4:	006b4b33          	xor	s6,s6,t1
   125f8:	008b1b93          	slli	s7,s6,0x8
   125fc:	018b5b13          	srli	s6,s6,0x18
   12600:	017b4b33          	xor	s6,s6,s7
   12604:	01690933          	add	s2,s2,s6
   12608:	012f4f33          	xor	t5,t5,s2
   1260c:	007f1b93          	slli	s7,t5,0x7
   12610:	019f5f13          	srli	t5,t5,0x19
   12614:	017f4f33          	xor	t5,t5,s7
   12618:	01c80833          	add	a6,a6,t3
   1261c:	010b4b33          	xor	s6,s6,a6
   12620:	010b1b93          	slli	s7,s6,0x10
   12624:	010b5b13          	srli	s6,s6,0x10
   12628:	017b4b33          	xor	s6,s6,s7
   1262c:	016484b3          	add	s1,s1,s6
   12630:	009e4e33          	xor	t3,t3,s1
   12634:	00ce1b93          	slli	s7,t3,0xc
   12638:	014e5e13          	srli	t3,t3,0x14
   1263c:	017e4e33          	xor	t3,t3,s7
   12640:	01c80833          	add	a6,a6,t3
   12644:	010b4b33          	xor	s6,s6,a6
   12648:	008b1b93          	slli	s7,s6,0x8
   1264c:	018b5b13          	srli	s6,s6,0x18
   12650:	017b4b33          	xor	s6,s6,s7
   12654:	016484b3          	add	s1,s1,s6
   12658:	009e4e33          	xor	t3,t3,s1
   1265c:	007e1b93          	slli	s7,t3,0x7
   12660:	019e5e13          	srli	t3,t3,0x19
   12664:	017e4e33          	xor	t3,t3,s7
   12668:	01d888b3          	add	a7,a7,t4
   1266c:	0119c9b3          	xor	s3,s3,a7
   12670:	01099b93          	slli	s7,s3,0x10
   12674:	0109d993          	srli	s3,s3,0x10
   12678:	0179c9b3          	xor	s3,s3,s7
   1267c:	01390933          	add	s2,s2,s3
   12680:	012eceb3          	xor	t4,t4,s2
   12684:	00ce9b93          	slli	s7,t4,0xc
   12688:	014ede93          	srli	t4,t4,0x14
   1268c:	017eceb3          	xor	t4,t4,s7
   12690:	01d888b3          	add	a7,a7,t4
   12694:	0119c9b3          	xor	s3,s3,a7
   12698:	00899b93          	slli	s7,s3,0x8
   1269c:	0189d993          	srli	s3,s3,0x18
   126a0:	0179c9b3          	xor	s3,s3,s7
   126a4:	01390933          	add	s2,s2,s3
   126a8:	012eceb3          	xor	t4,t4,s2
   126ac:	007e9b93          	slli	s7,t4,0x7
   126b0:	019ede93          	srli	t4,t4,0x19
   126b4:	017eceb3          	xor	t4,t4,s7
   126b8:	01e282b3          	add	t0,t0,t5
   126bc:	005a4a33          	xor	s4,s4,t0
   126c0:	010a1b93          	slli	s7,s4,0x10
   126c4:	010a5a13          	srli	s4,s4,0x10
   126c8:	017a4a33          	xor	s4,s4,s7
   126cc:	014f8fb3          	add	t6,t6,s4
   126d0:	01ff4f33          	xor	t5,t5,t6
   126d4:	00cf1b93          	slli	s7,t5,0xc
   126d8:	014f5f13          	srli	t5,t5,0x14
   126dc:	017f4f33          	xor	t5,t5,s7
   126e0:	01e282b3          	add	t0,t0,t5
   126e4:	005a4a33          	xor	s4,s4,t0
   126e8:	008a1b93          	slli	s7,s4,0x8
   126ec:	018a5a13          	srli	s4,s4,0x18
   126f0:	017a4a33          	xor	s4,s4,s7
   126f4:	014f8fb3          	add	t6,t6,s4
   126f8:	01ff4f33          	xor	t5,t5,t6
   126fc:	007f1b93          	slli	s7,t5,0x7
   12700:	019f5f13          	srli	t5,t5,0x19
   12704:	017f4f33          	xor	t5,t5,s7
   12708:	00730333          	add	t1,t1,t2
   1270c:	006acab3          	xor	s5,s5,t1
   12710:	010a9b93          	slli	s7,s5,0x10
   12714:	010ada93          	srli	s5,s5,0x10
   12718:	017acab3          	xor	s5,s5,s7
   1271c:	01540433          	add	s0,s0,s5
   12720:	0083c3b3          	xor	t2,t2,s0
   12724:	00c39b93          	slli	s7,t2,0xc
   12728:	0143d393          	srli	t2,t2,0x14
   1272c:	0173c3b3          	xor	t2,t2,s7
   12730:	00730333          	add	t1,t1,t2
   12734:	006acab3          	xor	s5,s5,t1
   12738:	008a9b93          	slli	s7,s5,0x8
   1273c:	018ada93          	srli	s5,s5,0x18
   12740:	017acab3          	xor	s5,s5,s7
   12744:	01540433          	add	s0,s0,s5
   12748:	0083c3b3          	xor	t2,t2,s0
   1274c:	00739b93          	slli	s7,t2,0x7
   12750:	0193d393          	srli	t2,t2,0x19
   12754:	0173c3b3          	xor	t2,t2,s7
   12758:	00780833          	add	a6,a6,t2
   1275c:	0109c9b3          	xor	s3,s3,a6
   12760:	01099b93          	slli	s7,s3,0x10
   12764:	0109d993          	srli	s3,s3,0x10
   12768:	0179c9b3          	xor	s3,s3,s7
   1276c:	013f8fb3          	add	t6,t6,s3
   12770:	01f3c3b3          	xor	t2,t2,t6
   12774:	00c39b93          	slli	s7,t2,0xc
   12778:	0143d393          	srli	t2,t2,0x14
   1277c:	0173c3b3          	xor	t2,t2,s7
   12780:	00780833          	add	a6,a6,t2
   12784:	0109c9b3          	xor	s3,s3,a6
   12788:	00899b93          	slli	s7,s3,0x8
   1278c:	0189d993          	srli	s3,s3,0x18
   12790:	0179c9b3          	xor	s3,s3,s7
   12794:	013f8fb3          	add	t6,t6,s3
   12798:	01f3c3b3          	xor	t2,t2,t6
   1279c:	00739b93          	slli	s7,t2,0x7
   127a0:	0193d393          	srli	t2,t2,0x19
   127a4:	0173c3b3          	xor	t2,t2,s7
   127a8:	01c888b3          	add	a7,a7,t3
   127ac:	011a4a33          	xor	s4,s4,a7
   127b0:	010a1b93          	slli	s7,s4,0x10
   127b4:	010a5a13          	srli	s4,s4,0x10
   127b8:	017a4a33          	xor	s4,s4,s7
   127bc:	01440433          	add	s0,s0,s4
   127c0:	008e4e33          	xor	t3,t3,s0
   127c4:	00ce1b93          	slli	s7,t3,0xc
   127c8:	014e5e13          	srli	t3,t3,0x14
   127cc:	017e4e33          	xor	t3,t3,s7
   127d0:	01c888b3          	add	a7,a7,t3
   127d4:	011a4a33          	xor	s4,s4,a7
   127d8:	008a1b93          	slli	s7,s4,0x8
   127dc:	018a5a13          	srli	s4,s4,0x18
   127e0:	017a4a33          	xor	s4,s4,s7
   127e4:	01440433          	add	s0,s0,s4
   127e8:	008e4e33          	xor	t3,t3,s0
   127ec:	007e1b93          	slli	s7,t3,0x7
   127f0:	019e5e13          	srli	t3,t3,0x19
   127f4:	017e4e33          	xor	t3,t3,s7
   127f8:	01d282b3          	add	t0,t0,t4
   127fc:	005acab3          	xor	s5,s5,t0
   12800:	010a9b93          	slli	s7,s5,0x10
   12804:	010ada93          	srli	s5,s5,0x10
   12808:	017acab3          	xor	s5,s5,s7
   1280c:	015484b3          	add	s1,s1,s5
   12810:	009eceb3          	xor	t4,t4,s1
   12814:	00ce9b93          	slli	s7,t4,0xc
   12818:	014ede93          	srli	t4,t4,0x14
   1281c:	017eceb3          	xor	t4,t4,s7
   12820:	01d282b3          	add	t0,t0,t4
   12824:	005acab3          	xor	s5,s5,t0
   12828:	008a9b93          	slli	s7,s5,0x8
   1282c:	018ada93          	srli	s5,s5,0x18
   12830:	017acab3          	xor	s5,s5,s7
   12834:	015484b3          	add	s1,s1,s5
   12838:	009eceb3          	xor	t4,t4,s1
   1283c:	007e9b93          	slli	s7,t4,0x7
   12840:	019ede93          	srli	t4,t4,0x19
   12844:	017eceb3          	xor	t4,t4,s7
   12848:	01e30333          	add	t1,t1,t5
   1284c:	006b4b33          	xor	s6,s6,t1
   12850:	010b1b93          	slli	s7,s6,0x10
   12854:	010b5b13          	srli	s6,s6,0x10
   12858:	017b4b33          	xor	s6,s6,s7
   1285c:	01690933          	add	s2,s2,s6
   12860:	012f4f33          	xor	t5,t5,s2
   12864:	00cf1b93          	slli	s7,t5,0xc
   12868:	014f5f13          	srli	t5,t5,0x14
   1286c:	017f4f33          	xor	t5,t5,s7
   12870:	01e30333          	add	t1,t1,t5
   12874:	006b4b33          	xor	s6,s6,t1
   12878:	008b1b93          	slli	s7,s6,0x8
   1287c:	018b5b13          	srli	s6,s6,0x18
   12880:	017b4b33          	xor	s6,s6,s7
   12884:	01690933          	add	s2,s2,s6
   12888:	012f4f33          	xor	t5,t5,s2
   1288c:	007f1b93          	slli	s7,t5,0x7
   12890:	019f5f13          	srli	t5,t5,0x19
   12894:	017f4f33          	xor	t5,t5,s7
   12898:	01c80833          	add	a6,a6,t3
   1289c:	010b4b33          	xor	s6,s6,a6
   128a0:	010b1b93          	slli	s7,s6,0x10
   128a4:	010b5b13          	srli	s6,s6,0x10
   128a8:	017b4b33          	xor	s6,s6,s7
   128ac:	016484b3          	add	s1,s1,s6
   128b0:	009e4e33          	xor	t3,t3,s1
   128b4:	00ce1b93          	slli	s7,t3,0xc
   128b8:	014e5e13          	srli	t3,t3,0x14
   128bc:	017e4e33          	xor	t3,t3,s7
   128c0:	01c80833          	add	a6,a6,t3
   128c4:	010b4b33          	xor	s6,s6,a6
   128c8:	008b1b93          	slli	s7,s6,0x8
   128cc:	018b5b13          	srli	s6,s6,0x18
   128d0:	017b4b33          	xor	s6,s6,s7
   128d4:	016484b3          	add	s1,s1,s6
   128d8:	009e4e33          	xor	t3,t3,s1
   128dc:	007e1b93          	slli	s7,t3,0x7
   128e0:	019e5e13          	srli	t3,t3,0x19
   128e4:	017e4e33          	xor	t3,t3,s7
   128e8:	01d888b3          	add	a7,a7,t4
   128ec:	0119c9b3          	xor	s3,s3,a7
   128f0:	01099b93          	slli	s7,s3,0x10
   128f4:	0109d993          	srli	s3,s3,0x10
   128f8:	0179c9b3          	xor	s3,s3,s7
   128fc:	01390933          	add	s2,s2,s3
   12900:	012eceb3          	xor	t4,t4,s2
   12904:	00ce9b93          	slli	s7,t4,0xc
   12908:	014ede93          	srli	t4,t4,0x14
   1290c:	017eceb3          	xor	t4,t4,s7
   12910:	01d888b3          	add	a7,a7,t4
   12914:	0119c9b3          	xor	s3,s3,a7
   12918:	00899b93          	slli	s7,s3,0x8
   1291c:	0189d993          	srli	s3,s3,0x18
   12920:	0179c9b3          	xor	s3,s3,s7
   12924:	01390933          	add	s2,s2,s3
   12928:	012eceb3          	xor	t4,t4,s2
   1292c:	007e9b93          	slli	s7,t4,0x7
   12930:	019ede93          	srli	t4,t4,0x19
   12934:	017eceb3          	xor	t4,t4,s7
   12938:	01e282b3          	add	t0,t0,t5
   1293c:	005a4a33          	xor	s4,s4,t0
   12940:	010a1b93          	slli	s7,s4,0x10
   12944:	010a5a13          	srli	s4,s4,0x10
   12948:	017a4a33          	xor	s4,s4,s7
   1294c:	014f8fb3          	add	t6,t6,s4
   12950:	01ff4f33          	xor	t5,t5,t6
   12954:	00cf1b93          	slli	s7,t5,0xc
   12958:	014f5f13          	srli	t5,t5,0x14
   1295c:	017f4f33          	xor	t5,t5,s7
   12960:	01e282b3          	add	t0,t0,t5
   12964:	005a4a33          	xor	s4,s4,t0
   12968:	008a1b93          	slli	s7,s4,0x8
   1296c:	018a5a13          	srli	s4,s4,0x18
   12970:	017a4a33          	xor	s4,s4,s7
   12974:	014f8fb3          	add	t6,t6,s4
   12978:	01ff4f33          	xor	t5,t5,t6
   1297c:	007f1b93          	slli	s7,t5,0x7
   12980:	019f5f13          	srli	t5,t5,0x19
   12984:	017f4f33          	xor	t5,t5,s7
   12988:	00730333          	add	t1,t1,t2
   1298c:	006acab3          	xor	s5,s5,t1
   12990:	010a9b93          	slli	s7,s5,0x10
   12994:	010ada93          	srli	s5,s5,0x10
   12998:	017acab3          	xor	s5,s5,s7
   1299c:	01540433          	add	s0,s0,s5
   129a0:	0083c3b3          	xor	t2,t2,s0
   129a4:	00c39b93          	slli	s7,t2,0xc
   129a8:	0143d393          	srli	t2,t2,0x14
   129ac:	0173c3b3          	xor	t2,t2,s7
   129b0:	00730333          	add	t1,t1,t2
   129b4:	006acab3          	xor	s5,s5,t1
   129b8:	008a9b93          	slli	s7,s5,0x8
   129bc:	018ada93          	srli	s5,s5,0x18
   129c0:	017acab3          	xor	s5,s5,s7
   129c4:	01540433          	add	s0,s0,s5
   129c8:	0083c3b3          	xor	t2,t2,s0
   129cc:	00739b93          	slli	s7,t2,0x7
   129d0:	0193d393          	srli	t2,t2,0x19
   129d4:	0173c3b3          	xor	t2,t2,s7
   129d8:	00780833          	add	a6,a6,t2
   129dc:	0109c9b3          	xor	s3,s3,a6
   129e0:	01099b93          	slli	s7,s3,0x10
   129e4:	0109d993          	srli	s3,s3,0x10
   129e8:	0179c9b3          	xor	s3,s3,s7
   129ec:	013f8fb3          	add	t6,t6,s3
   129f0:	01f3c3b3          	xor	t2,t2,t6
   129f4:	00c39b93          	slli	s7,t2,0xc
   129f8:	0143d393          	srli	t2,t2,0x14
   129fc:	0173c3b3          	xor	t2,t2,s7
   12a00:	00780833          	add	a6,a6,t2
   12a04:	0109c9b3          	xor	s3,s3,a6
   12a08:	00899b93          	slli	s7,s3,0x8
   12a0c:	0189d993          	srli	s3,s3,0x18
   12a10:	0179c9b3          	xor	s3,s3,s7
   12a14:	013f8fb3          	add	t6,t6,s3
   12a18:	01f3c3b3          	xor	t2,t2,t6
   12a1c:	00739b93          	slli	s7,t2,0x7
   12a20:	0193d393          	srli	t2,t2,0x19
   12a24:	0173c3b3          	xor	t2,t2,s7
   12a28:	01c888b3          	add	a7,a7,t3
   12a2c:	011a4a33          	xor	s4,s4,a7
   12a30:	010a1b93          	slli	s7,s4,0x10
   12a34:	010a5a13          	srli	s4,s4,0x10
   12a38:	017a4a33          	xor	s4,s4,s7
   12a3c:	01440433          	add	s0,s0,s4
   12a40:	008e4e33          	xor	t3,t3,s0
   12a44:	00ce1b93          	slli	s7,t3,0xc
   12a48:	014e5e13          	srli	t3,t3,0x14
   12a4c:	017e4e33          	xor	t3,t3,s7
   12a50:	01c888b3          	add	a7,a7,t3
   12a54:	011a4a33          	xor	s4,s4,a7
   12a58:	008a1b93          	slli	s7,s4,0x8
   12a5c:	018a5a13          	srli	s4,s4,0x18
   12a60:	017a4a33          	xor	s4,s4,s7
   12a64:	01440433          	add	s0,s0,s4
   12a68:	008e4e33          	xor	t3,t3,s0
   12a6c:	007e1b93          	slli	s7,t3,0x7
   12a70:	019e5e13          	srli	t3,t3,0x19
   12a74:	017e4e33          	xor	t3,t3,s7
   12a78:	01d282b3          	add	t0,t0,t4
   12a7c:	005acab3          	xor	s5,s5,t0
   12a80:	010a9b93          	slli	s7,s5,0x10
   12a84:	010ada93          	srli	s5,s5,0x10
   12a88:	017acab3          	xor	s5,s5,s7
   12a8c:	015484b3          	add	s1,s1,s5
   12a90:	009eceb3          	xor	t4,t4,s1
   12a94:	00ce9b93          	slli	s7,t4,0xc
   12a98:	014ede93          	srli	t4,t4,0x14
   12a9c:	017eceb3          	xor	t4,t4,s7
   12aa0:	01d282b3          	add	t0,t0,t4
   12aa4:	005acab3          	xor	s5,s5,t0
   12aa8:	008a9b93          	slli	s7,s5,0x8
   12aac:	018ada93          	srli	s5,s5,0x18
   12ab0:	017acab3          	xor	s5,s5,s7
   12ab4:	015484b3          	add	s1,s1,s5
   12ab8:	009eceb3          	xor	t4,t4,s1
   12abc:	007e9b93          	slli	s7,t4,0x7
   12ac0:	019ede93          	srli	t4,t4,0x19
   12ac4:	017eceb3          	xor	t4,t4,s7
   12ac8:	01e30333          	add	t1,t1,t5
   12acc:	006b4b33          	xor	s6,s6,t1
   12ad0:	010b1b93          	slli	s7,s6,0x10
   12ad4:	010b5b13          	srli	s6,s6,0x10
   12ad8:	017b4b33          	xor	s6,s6,s7
   12adc:	01690933          	add	s2,s2,s6
   12ae0:	012f4f33          	xor	t5,t5,s2
   12ae4:	00cf1b93          	slli	s7,t5,0xc
   12ae8:	014f5f13          	srli	t5,t5,0x14
   12aec:	017f4f33          	xor	t5,t5,s7
   12af0:	01e30333          	add	t1,t1,t5
   12af4:	006b4b33          	xor	s6,s6,t1
   12af8:	008b1b93          	slli	s7,s6,0x8
   12afc:	018b5b13          	srli	s6,s6,0x18
   12b00:	017b4b33          	xor	s6,s6,s7
   12b04:	01690933          	add	s2,s2,s6
   12b08:	012f4f33          	xor	t5,t5,s2
   12b0c:	007f1b93          	slli	s7,t5,0x7
   12b10:	019f5f13          	srli	t5,t5,0x19
   12b14:	017f4f33          	xor	t5,t5,s7
   12b18:	01c80833          	add	a6,a6,t3
   12b1c:	010b4b33          	xor	s6,s6,a6
   12b20:	010b1b93          	slli	s7,s6,0x10
   12b24:	010b5b13          	srli	s6,s6,0x10
   12b28:	017b4b33          	xor	s6,s6,s7
   12b2c:	016484b3          	add	s1,s1,s6
   12b30:	009e4e33          	xor	t3,t3,s1
   12b34:	00ce1b93          	slli	s7,t3,0xc
   12b38:	014e5e13          	srli	t3,t3,0x14
   12b3c:	017e4e33          	xor	t3,t3,s7
   12b40:	01c80833          	add	a6,a6,t3
   12b44:	010b4b33          	xor	s6,s6,a6
   12b48:	008b1b93          	slli	s7,s6,0x8
   12b4c:	018b5b13          	srli	s6,s6,0x18
   12b50:	017b4b33          	xor	s6,s6,s7
   12b54:	016484b3          	add	s1,s1,s6
   12b58:	009e4e33          	xor	t3,t3,s1
   12b5c:	007e1b93          	slli	s7,t3,0x7
   12b60:	019e5e13          	srli	t3,t3,0x19
   12b64:	017e4e33          	xor	t3,t3,s7
   12b68:	01d888b3          	add	a7,a7,t4
   12b6c:	0119c9b3          	xor	s3,s3,a7
   12b70:	01099b93          	slli	s7,s3,0x10
   12b74:	0109d993          	srli	s3,s3,0x10
   12b78:	0179c9b3          	xor	s3,s3,s7
   12b7c:	01390933          	add	s2,s2,s3
   12b80:	012eceb3          	xor	t4,t4,s2
   12b84:	00ce9b93          	slli	s7,t4,0xc
   12b88:	014ede93          	srli	t4,t4,0x14
   12b8c:	017eceb3          	xor	t4,t4,s7
   12b90:	01d888b3          	add	a7,a7,t4
   12b94:	0119c9b3          	xor	s3,s3,a7
   12b98:	00899b93          	slli	s7,s3,0x8
   12b9c:	0189d993          	srli	s3,s3,0x18
   12ba0:	0179c9b3          	xor	s3,s3,s7
   12ba4:	01390933          	add	s2,s2,s3
   12ba8:	012eceb3          	xor	t4,t4,s2
   12bac:	007e9b93          	slli	s7,t4,0x7
   12bb0:	019ede93          	srli	t4,t4,0x19
   12bb4:	017eceb3          	xor	t4,t4,s7
   12bb8:	01e282b3          	add	t0,t0,t5
   12bbc:	005a4a33          	xor	s4,s4,t0
   12bc0:	010a1b93          	slli	s7,s4,0x10
   12bc4:	010a5a13          	srli	s4,s4,0x10
   12bc8:	017a4a33          	xor	s4,s4,s7
   12bcc:	014f8fb3          	add	t6,t6,s4
   12bd0:	01ff4f33          	xor	t5,t5,t6
   12bd4:	00cf1b93          	slli	s7,t5,0xc
   12bd8:	014f5f13          	srli	t5,t5,0x14
   12bdc:	017f4f33          	xor	t5,t5,s7
   12be0:	01e282b3          	add	t0,t0,t5
   12be4:	005a4a33          	xor	s4,s4,t0
   12be8:	008a1b93          	slli	s7,s4,0x8
   12bec:	018a5a13          	srli	s4,s4,0x18
   12bf0:	017a4a33          	xor	s4,s4,s7
   12bf4:	014f8fb3          	add	t6,t6,s4
   12bf8:	01ff4f33          	xor	t5,t5,t6
   12bfc:	007f1b93          	slli	s7,t5,0x7
   12c00:	019f5f13          	srli	t5,t5,0x19
   12c04:	017f4f33          	xor	t5,t5,s7
   12c08:	00730333          	add	t1,t1,t2
   12c0c:	006acab3          	xor	s5,s5,t1
   12c10:	010a9b93          	slli	s7,s5,0x10
   12c14:	010ada93          	srli	s5,s5,0x10
   12c18:	017acab3          	xor	s5,s5,s7
   12c1c:	01540433          	add	s0,s0,s5
   12c20:	0083c3b3          	xor	t2,t2,s0
   12c24:	00c39b93          	slli	s7,t2,0xc
   12c28:	0143d393          	srli	t2,t2,0x14
   12c2c:	0173c3b3          	xor	t2,t2,s7
   12c30:	00730333          	add	t1,t1,t2
   12c34:	006acab3          	xor	s5,s5,t1
   12c38:	008a9b93          	slli	s7,s5,0x8
   12c3c:	018ada93          	srli	s5,s5,0x18
   12c40:	017acab3          	xor	s5,s5,s7
   12c44:	01540433          	add	s0,s0,s5
   12c48:	0083c3b3          	xor	t2,t2,s0
   12c4c:	00739b93          	slli	s7,t2,0x7
   12c50:	0193d393          	srli	t2,t2,0x19
   12c54:	0173c3b3          	xor	t2,t2,s7
   12c58:	00780833          	add	a6,a6,t2
   12c5c:	0109c9b3          	xor	s3,s3,a6
   12c60:	01099b93          	slli	s7,s3,0x10
   12c64:	0109d993          	srli	s3,s3,0x10
   12c68:	0179c9b3          	xor	s3,s3,s7
   12c6c:	013f8fb3          	add	t6,t6,s3
   12c70:	01f3c3b3          	xor	t2,t2,t6
   12c74:	00c39b93          	slli	s7,t2,0xc
   12c78:	0143d393          	srli	t2,t2,0x14
   12c7c:	0173c3b3          	xor	t2,t2,s7
   12c80:	00780833          	add	a6,a6,t2
   12c84:	0109c9b3          	xor	s3,s3,a6
   12c88:	00899b93          	slli	s7,s3,0x8
   12c8c:	0189d993          	srli	s3,s3,0x18
   12c90:	0179c9b3          	xor	s3,s3,s7
   12c94:	013f8fb3          	add	t6,t6,s3
   12c98:	01f3c3b3          	xor	t2,t2,t6
   12c9c:	00739b93          	slli	s7,t2,0x7
   12ca0:	0193d393          	srli	t2,t2,0x19
   12ca4:	0173c3b3          	xor	t2,t2,s7
   12ca8:	01c888b3          	add	a7,a7,t3
   12cac:	011a4a33          	xor	s4,s4,a7
   12cb0:	010a1b93          	slli	s7,s4,0x10
   12cb4:	010a5a13          	srli	s4,s4,0x10
   12cb8:	017a4a33          	xor	s4,s4,s7
   12cbc:	01440433          	add	s0,s0,s4
   12cc0:	008e4e33          	xor	t3,t3,s0
   12cc4:	00ce1b93          	slli	s7,t3,0xc
   12cc8:	014e5e13          	srli	t3,t3,0x14
   12ccc:	017e4e33          	xor	t3,t3,s7
   12cd0:	01c888b3          	add	a7,a7,t3
   12cd4:	011a4a33          	xor	s4,s4,a7
   12cd8:	008a1b93          	slli	s7,s4,0x8
   12cdc:	018a5a13          	srli	s4,s4,0x18
   12ce0:	017a4a33          	xor	s4,s4,s7
   12ce4:	01440433          	add	s0,s0,s4
   12ce8:	008e4e33          	xor	t3,t3,s0
   12cec:	007e1b93          	slli	s7,t3,0x7
   12cf0:	019e5e13          	srli	t3,t3,0x19
   12cf4:	017e4e33          	xor	t3,t3,s7
   12cf8:	01d282b3          	add	t0,t0,t4
   12cfc:	005acab3          	xor	s5,s5,t0
   12d00:	010a9b93          	slli	s7,s5,0x10
   12d04:	010ada93          	srli	s5,s5,0x10
   12d08:	017acab3          	xor	s5,s5,s7
   12d0c:	015484b3          	add	s1,s1,s5
   12d10:	009eceb3          	xor	t4,t4,s1
   12d14:	00ce9b93          	slli	s7,t4,0xc
   12d18:	014ede93          	srli	t4,t4,0x14
   12d1c:	017eceb3          	xor	t4,t4,s7
   12d20:	01d282b3          	add	t0,t0,t4
   12d24:	005acab3          	xor	s5,s5,t0
   12d28:	008a9b93          	slli	s7,s5,0x8
   12d2c:	018ada93          	srli	s5,s5,0x18
   12d30:	017acab3          	xor	s5,s5,s7
   12d34:	015484b3          	add	s1,s1,s5
   12d38:	009eceb3          	xor	t4,t4,s1
   12d3c:	007e9b93          	slli	s7,t4,0x7
   12d40:	019ede93          	srli	t4,t4,0x19
   12d44:	017eceb3          	xor	t4,t4,s7
   12d48:	01e30333          	add	t1,t1,t5
   12d4c:	006b4b33          	xor	s6,s6,t1
   12d50:	010b1b93          	slli	s7,s6,0x10
   12d54:	010b5b13          	srli	s6,s6,0x10
   12d58:	017b4b33          	xor	s6,s6,s7
   12d5c:	01690933          	add	s2,s2,s6
   12d60:	012f4f33          	xor	t5,t5,s2
   12d64:	00cf1b93          	slli	s7,t5,0xc
   12d68:	014f5f13          	srli	t5,t5,0x14
   12d6c:	017f4f33          	xor	t5,t5,s7
   12d70:	01e30333          	add	t1,t1,t5
   12d74:	006b4b33          	xor	s6,s6,t1
   12d78:	008b1b93          	slli	s7,s6,0x8
   12d7c:	018b5b13          	srli	s6,s6,0x18
   12d80:	017b4b33          	xor	s6,s6,s7
   12d84:	01690933          	add	s2,s2,s6
   12d88:	012f4f33          	xor	t5,t5,s2
   12d8c:	007f1b93          	slli	s7,t5,0x7
   12d90:	019f5f13          	srli	t5,t5,0x19
   12d94:	017f4f33          	xor	t5,t5,s7
   12d98:	01c80833          	add	a6,a6,t3
   12d9c:	010b4b33          	xor	s6,s6,a6
   12da0:	010b1b93          	slli	s7,s6,0x10
   12da4:	010b5b13          	srli	s6,s6,0x10
   12da8:	017b4b33          	xor	s6,s6,s7
   12dac:	016484b3          	add	s1,s1,s6
   12db0:	009e4e33          	xor	t3,t3,s1
   12db4:	00ce1b93          	slli	s7,t3,0xc
   12db8:	014e5e13          	srli	t3,t3,0x14
   12dbc:	017e4e33          	xor	t3,t3,s7
   12dc0:	01c80833          	add	a6,a6,t3
   12dc4:	010b4b33          	xor	s6,s6,a6
   12dc8:	008b1b93          	slli	s7,s6,0x8
   12dcc:	018b5b13          	srli	s6,s6,0x18
   12dd0:	017b4b33          	xor	s6,s6,s7
   12dd4:	016484b3          	add	s1,s1,s6
   12dd8:	009e4e33          	xor	t3,t3,s1
   12ddc:	007e1b93          	slli	s7,t3,0x7
   12de0:	019e5e13          	srli	t3,t3,0x19
   12de4:	017e4e33          	xor	t3,t3,s7
   12de8:	01d888b3          	add	a7,a7,t4
   12dec:	0119c9b3          	xor	s3,s3,a7
   12df0:	01099b93          	slli	s7,s3,0x10
   12df4:	0109d993          	srli	s3,s3,0x10
   12df8:	0179c9b3          	xor	s3,s3,s7
   12dfc:	01390933          	add	s2,s2,s3
   12e00:	012eceb3          	xor	t4,t4,s2
   12e04:	00ce9b93          	slli	s7,t4,0xc
   12e08:	014ede93          	srli	t4,t4,0x14
   12e0c:	017eceb3          	xor	t4,t4,s7
   12e10:	01d888b3          	add	a7,a7,t4
   12e14:	0119c9b3          	xor	s3,s3,a7
   12e18:	00899b93          	slli	s7,s3,0x8
   12e1c:	0189d993          	srli	s3,s3,0x18
   12e20:	0179c9b3          	xor	s3,s3,s7
   12e24:	01390933          	add	s2,s2,s3
   12e28:	012eceb3          	xor	t4,t4,s2
   12e2c:	007e9b93          	slli	s7,t4,0x7
   12e30:	019ede93          	srli	t4,t4,0x19
   12e34:	017eceb3          	xor	t4,t4,s7
   12e38:	01e282b3          	add	t0,t0,t5
   12e3c:	005a4a33          	xor	s4,s4,t0
   12e40:	010a1b93          	slli	s7,s4,0x10
   12e44:	010a5a13          	srli	s4,s4,0x10
   12e48:	017a4a33          	xor	s4,s4,s7
   12e4c:	014f8fb3          	add	t6,t6,s4
   12e50:	01ff4f33          	xor	t5,t5,t6
   12e54:	00cf1b93          	slli	s7,t5,0xc
   12e58:	014f5f13          	srli	t5,t5,0x14
   12e5c:	017f4f33          	xor	t5,t5,s7
   12e60:	01e282b3          	add	t0,t0,t5
   12e64:	005a4a33          	xor	s4,s4,t0
   12e68:	008a1b93          	slli	s7,s4,0x8
   12e6c:	018a5a13          	srli	s4,s4,0x18
   12e70:	017a4a33          	xor	s4,s4,s7
   12e74:	014f8fb3          	add	t6,t6,s4
   12e78:	01ff4f33          	xor	t5,t5,t6
   12e7c:	007f1b93          	slli	s7,t5,0x7
   12e80:	019f5f13          	srli	t5,t5,0x19
   12e84:	017f4f33          	xor	t5,t5,s7
   12e88:	00730333          	add	t1,t1,t2
   12e8c:	006acab3          	xor	s5,s5,t1
   12e90:	010a9b93          	slli	s7,s5,0x10
   12e94:	010ada93          	srli	s5,s5,0x10
   12e98:	017acab3          	xor	s5,s5,s7
   12e9c:	01540433          	add	s0,s0,s5
   12ea0:	0083c3b3          	xor	t2,t2,s0
   12ea4:	00c39b93          	slli	s7,t2,0xc
   12ea8:	0143d393          	srli	t2,t2,0x14
   12eac:	0173c3b3          	xor	t2,t2,s7
   12eb0:	00730333          	add	t1,t1,t2
   12eb4:	006acab3          	xor	s5,s5,t1
   12eb8:	008a9b93          	slli	s7,s5,0x8
   12ebc:	018ada93          	srli	s5,s5,0x18
   12ec0:	017acab3          	xor	s5,s5,s7
   12ec4:	01540433          	add	s0,s0,s5
   12ec8:	0083c3b3          	xor	t2,t2,s0
   12ecc:	00739b93          	slli	s7,t2,0x7
   12ed0:	0193d393          	srli	t2,t2,0x19
   12ed4:	0173c3b3          	xor	t2,t2,s7
   12ed8:	00780833          	add	a6,a6,t2
   12edc:	0109c9b3          	xor	s3,s3,a6
   12ee0:	01099b93          	slli	s7,s3,0x10
   12ee4:	0109d993          	srli	s3,s3,0x10
   12ee8:	0179c9b3          	xor	s3,s3,s7
   12eec:	013f8fb3          	add	t6,t6,s3
   12ef0:	01f3c3b3          	xor	t2,t2,t6
   12ef4:	00c39b93          	slli	s7,t2,0xc
   12ef8:	0143d393          	srli	t2,t2,0x14
   12efc:	0173c3b3          	xor	t2,t2,s7
   12f00:	00780833          	add	a6,a6,t2
   12f04:	0109c9b3          	xor	s3,s3,a6
   12f08:	00899b93          	slli	s7,s3,0x8
   12f0c:	0189d993          	srli	s3,s3,0x18
   12f10:	0179c9b3          	xor	s3,s3,s7
   12f14:	013f8fb3          	add	t6,t6,s3
   12f18:	01f3c3b3          	xor	t2,t2,t6
   12f1c:	00739b93          	slli	s7,t2,0x7
   12f20:	0193d393          	srli	t2,t2,0x19
   12f24:	0173c3b3          	xor	t2,t2,s7
   12f28:	01c888b3          	add	a7,a7,t3
   12f2c:	011a4a33          	xor	s4,s4,a7
   12f30:	010a1b93          	slli	s7,s4,0x10
   12f34:	010a5a13          	srli	s4,s4,0x10
   12f38:	017a4a33          	xor	s4,s4,s7
   12f3c:	01440433          	add	s0,s0,s4
   12f40:	008e4e33          	xor	t3,t3,s0
   12f44:	00ce1b93          	slli	s7,t3,0xc
   12f48:	014e5e13          	srli	t3,t3,0x14
   12f4c:	017e4e33          	xor	t3,t3,s7
   12f50:	01c888b3          	add	a7,a7,t3
   12f54:	011a4a33          	xor	s4,s4,a7
   12f58:	008a1b93          	slli	s7,s4,0x8
   12f5c:	018a5a13          	srli	s4,s4,0x18
   12f60:	017a4a33          	xor	s4,s4,s7
   12f64:	01440433          	add	s0,s0,s4
   12f68:	008e4e33          	xor	t3,t3,s0
   12f6c:	007e1b93          	slli	s7,t3,0x7
   12f70:	019e5e13          	srli	t3,t3,0x19
   12f74:	017e4e33          	xor	t3,t3,s7
   12f78:	01d282b3          	add	t0,t0,t4
   12f7c:	005acab3          	xor	s5,s5,t0
   12f80:	010a9b93          	slli	s7,s5,0x10
   12f84:	010ada93          	srli	s5,s5,0x10
   12f88:	017acab3          	xor	s5,s5,s7
   12f8c:	015484b3          	add	s1,s1,s5
   12f90:	009eceb3          	xor	t4,t4,s1
   12f94:	00ce9b93          	slli	s7,t4,0xc
   12f98:	014ede93          	srli	t4,t4,0x14
   12f9c:	017eceb3          	xor	t4,t4,s7
   12fa0:	01d282b3          	add	t0,t0,t4
   12fa4:	005acab3          	xor	s5,s5,t0
   12fa8:	008a9b93          	slli	s7,s5,0x8
   12fac:	018ada93          	srli	s5,s5,0x18
   12fb0:	017acab3          	xor	s5,s5,s7
   12fb4:	015484b3          	add	s1,s1,s5
   12fb8:	009eceb3          	xor	t4,t4,s1
   12fbc:	007e9b93          	slli	s7,t4,0x7
   12fc0:	019ede93          	srli	t4,t4,0x19
   12fc4:	017eceb3          	xor	t4,t4,s7
   12fc8:	01e30333          	add	t1,t1,t5
   12fcc:	006b4b33          	xor	s6,s6,t1
   12fd0:	010b1b93          	slli	s7,s6,0x10
   12fd4:	010b5b13          	srli	s6,s6,0x10
   12fd8:	017b4b33          	xor	s6,s6,s7
   12fdc:	01690933          	add	s2,s2,s6
   12fe0:	012f4f33          	xor	t5,t5,s2
   12fe4:	00cf1b93          	slli	s7,t5,0xc
   12fe8:	014f5f13          	srli	t5,t5,0x14
   12fec:	017f4f33          	xor	t5,t5,s7
   12ff0:	01e30333          	add	t1,t1,t5
   12ff4:	006b4b33          	xor	s6,s6,t1
   12ff8:	008b1b93          	slli	s7,s6,0x8
   12ffc:	018b5b13          	srli	s6,s6,0x18
   13000:	017b4b33          	xor	s6,s6,s7
   13004:	01690933          	add	s2,s2,s6
   13008:	012f4f33          	xor	t5,t5,s2
   1300c:	007f1b93          	slli	s7,t5,0x7
   13010:	019f5f13          	srli	t5,t5,0x19
   13014:	017f4f33          	xor	t5,t5,s7
   13018:	01c80833          	add	a6,a6,t3
   1301c:	010b4b33          	xor	s6,s6,a6
   13020:	010b1b93          	slli	s7,s6,0x10
   13024:	010b5b13          	srli	s6,s6,0x10
   13028:	017b4b33          	xor	s6,s6,s7
   1302c:	016484b3          	add	s1,s1,s6
   13030:	009e4e33          	xor	t3,t3,s1
   13034:	00ce1b93          	slli	s7,t3,0xc
   13038:	014e5e13          	srli	t3,t3,0x14
   1303c:	017e4e33          	xor	t3,t3,s7
   13040:	01c80833          	add	a6,a6,t3
   13044:	010b4b33          	xor	s6,s6,a6
   13048:	008b1b93          	slli	s7,s6,0x8
   1304c:	018b5b13          	srli	s6,s6,0x18
   13050:	017b4b33          	xor	s6,s6,s7
   13054:	016484b3          	add	s1,s1,s6
   13058:	009e4e33          	xor	t3,t3,s1
   1305c:	007e1b93          	slli	s7,t3,0x7
   13060:	019e5e13          	srli	t3,t3,0x19
   13064:	017e4e33          	xor	t3,t3,s7
   13068:	01d888b3          	add	a7,a7,t4
   1306c:	0119c9b3          	xor	s3,s3,a7
   13070:	01099b93          	slli	s7,s3,0x10
   13074:	0109d993          	srli	s3,s3,0x10
   13078:	0179c9b3          	xor	s3,s3,s7
   1307c:	01390933          	add	s2,s2,s3
   13080:	012eceb3          	xor	t4,t4,s2
   13084:	00ce9b93          	slli	s7,t4,0xc
   13088:	014ede93          	srli	t4,t4,0x14
   1308c:	017eceb3          	xor	t4,t4,s7
   13090:	01d888b3          	add	a7,a7,t4
   13094:	0119c9b3          	xor	s3,s3,a7
   13098:	00899b93          	slli	s7,s3,0x8
   1309c:	0189d993          	srli	s3,s3,0x18
   130a0:	0179c9b3          	xor	s3,s3,s7
   130a4:	01390933          	add	s2,s2,s3
   130a8:	012eceb3          	xor	t4,t4,s2
   130ac:	007e9b93          	slli	s7,t4,0x7
   130b0:	019ede93          	srli	t4,t4,0x19
   130b4:	017eceb3          	xor	t4,t4,s7
   130b8:	01e282b3          	add	t0,t0,t5
   130bc:	005a4a33          	xor	s4,s4,t0
   130c0:	010a1b93          	slli	s7,s4,0x10
   130c4:	010a5a13          	srli	s4,s4,0x10
   130c8:	017a4a33          	xor	s4,s4,s7
   130cc:	014f8fb3          	add	t6,t6,s4
   130d0:	01ff4f33          	xor	t5,t5,t6
   130d4:	00cf1b93          	slli	s7,t5,0xc
   130d8:	014f5f13          	srli	t5,t5,0x14
   130dc:	017f4f33          	xor	t5,t5,s7
   130e0:	01e282b3          	add	t0,t0,t5
   130e4:	005a4a33          	xor	s4,s4,t0
   130e8:	008a1b93          	slli	s7,s4,0x8
   130ec:	018a5a13          	srli	s4,s4,0x18
   130f0:	017a4a33          	xor	s4,s4,s7
   130f4:	014f8fb3          	add	t6,t6,s4
   130f8:	01ff4f33          	xor	t5,t5,t6
   130fc:	007f1b93          	slli	s7,t5,0x7
   13100:	019f5f13          	srli	t5,t5,0x19
   13104:	017f4f33          	xor	t5,t5,s7
   13108:	00730333          	add	t1,t1,t2
   1310c:	006acab3          	xor	s5,s5,t1
   13110:	010a9b93          	slli	s7,s5,0x10
   13114:	010ada93          	srli	s5,s5,0x10
   13118:	017acab3          	xor	s5,s5,s7
   1311c:	01540433          	add	s0,s0,s5
   13120:	0083c3b3          	xor	t2,t2,s0
   13124:	00c39b93          	slli	s7,t2,0xc
   13128:	0143d393          	srli	t2,t2,0x14
   1312c:	0173c3b3          	xor	t2,t2,s7
   13130:	00730333          	add	t1,t1,t2
   13134:	006acab3          	xor	s5,s5,t1
   13138:	008a9b93          	slli	s7,s5,0x8
   1313c:	018ada93          	srli	s5,s5,0x18
   13140:	017acab3          	xor	s5,s5,s7
   13144:	01540433          	add	s0,s0,s5
   13148:	0083c3b3          	xor	t2,t2,s0
   1314c:	00739b93          	slli	s7,t2,0x7
   13150:	0193d393          	srli	t2,t2,0x19
   13154:	0173c3b3          	xor	t2,t2,s7
   13158:	00780833          	add	a6,a6,t2
   1315c:	0109c9b3          	xor	s3,s3,a6
   13160:	01099b93          	slli	s7,s3,0x10
   13164:	0109d993          	srli	s3,s3,0x10
   13168:	0179c9b3          	xor	s3,s3,s7
   1316c:	013f8fb3          	add	t6,t6,s3
   13170:	01f3c3b3          	xor	t2,t2,t6
   13174:	00c39b93          	slli	s7,t2,0xc
   13178:	0143d393          	srli	t2,t2,0x14
   1317c:	0173c3b3          	xor	t2,t2,s7
   13180:	00780833          	add	a6,a6,t2
   13184:	0109c9b3          	xor	s3,s3,a6
   13188:	00899b93          	slli	s7,s3,0x8
   1318c:	0189d993          	srli	s3,s3,0x18
   13190:	0179c9b3          	xor	s3,s3,s7
   13194:	013f8fb3          	add	t6,t6,s3
   13198:	01f3c3b3          	xor	t2,t2,t6
   1319c:	00739b93          	slli	s7,t2,0x7
   131a0:	0193d393          	srli	t2,t2,0x19
   131a4:	0173c3b3          	xor	t2,t2,s7
   131a8:	01c888b3          	add	a7,a7,t3
   131ac:	011a4a33          	xor	s4,s4,a7
   131b0:	010a1b93          	slli	s7,s4,0x10
   131b4:	010a5a13          	srli	s4,s4,0x10
   131b8:	017a4a33          	xor	s4,s4,s7
   131bc:	01440433          	add	s0,s0,s4
   131c0:	008e4e33          	xor	t3,t3,s0
   131c4:	00ce1b93          	slli	s7,t3,0xc
   131c8:	014e5e13          	srli	t3,t3,0x14
   131cc:	017e4e33          	xor	t3,t3,s7
   131d0:	01c888b3          	add	a7,a7,t3
   131d4:	011a4a33          	xor	s4,s4,a7
   131d8:	008a1b93          	slli	s7,s4,0x8
   131dc:	018a5a13          	srli	s4,s4,0x18
   131e0:	017a4a33          	xor	s4,s4,s7
   131e4:	01440433          	add	s0,s0,s4
   131e8:	008e4e33          	xor	t3,t3,s0
   131ec:	007e1b93          	slli	s7,t3,0x7
   131f0:	019e5e13          	srli	t3,t3,0x19
   131f4:	017e4e33          	xor	t3,t3,s7
   131f8:	01d282b3          	add	t0,t0,t4
   131fc:	005acab3          	xor	s5,s5,t0
   13200:	010a9b93          	slli	s7,s5,0x10
   13204:	010ada93          	srli	s5,s5,0x10
   13208:	017acab3          	xor	s5,s5,s7
   1320c:	015484b3          	add	s1,s1,s5
   13210:	009eceb3          	xor	t4,t4,s1
   13214:	00ce9b93          	slli	s7,t4,0xc
   13218:	014ede93          	srli	t4,t4,0x14
   1321c:	017eceb3          	xor	t4,t4,s7
   13220:	01d282b3          	add	t0,t0,t4
   13224:	005acab3          	xor	s5,s5,t0
   13228:	008a9b93          	slli	s7,s5,0x8
   1322c:	018ada93          	srli	s5,s5,0x18
   13230:	017acab3          	xor	s5,s5,s7
   13234:	015484b3          	add	s1,s1,s5
   13238:	009eceb3          	xor	t4,t4,s1
   1323c:	007e9b93          	slli	s7,t4,0x7
   13240:	019ede93          	srli	t4,t4,0x19
   13244:	017eceb3          	xor	t4,t4,s7
   13248:	01e30333          	add	t1,t1,t5
   1324c:	006b4b33          	xor	s6,s6,t1
   13250:	010b1b93          	slli	s7,s6,0x10
   13254:	010b5b13          	srli	s6,s6,0x10
   13258:	017b4b33          	xor	s6,s6,s7
   1325c:	01690933          	add	s2,s2,s6
   13260:	012f4f33          	xor	t5,t5,s2
   13264:	00cf1b93          	slli	s7,t5,0xc
   13268:	014f5f13          	srli	t5,t5,0x14
   1326c:	017f4f33          	xor	t5,t5,s7
   13270:	01e30333          	add	t1,t1,t5
   13274:	006b4b33          	xor	s6,s6,t1
   13278:	008b1b93          	slli	s7,s6,0x8
   1327c:	018b5b13          	srli	s6,s6,0x18
   13280:	017b4b33          	xor	s6,s6,s7
   13284:	01690933          	add	s2,s2,s6
   13288:	012f4f33          	xor	t5,t5,s2
   1328c:	007f1b93          	slli	s7,t5,0x7
   13290:	019f5f13          	srli	t5,t5,0x19
   13294:	017f4f33          	xor	t5,t5,s7
   13298:	01c80833          	add	a6,a6,t3
   1329c:	010b4b33          	xor	s6,s6,a6
   132a0:	010b1b93          	slli	s7,s6,0x10
   132a4:	010b5b13          	srli	s6,s6,0x10
   132a8:	017b4b33          	xor	s6,s6,s7
   132ac:	016484b3          	add	s1,s1,s6
   132b0:	009e4e33          	xor	t3,t3,s1
   132b4:	00ce1b93          	slli	s7,t3,0xc
   132b8:	014e5e13          	srli	t3,t3,0x14
   132bc:	017e4e33          	xor	t3,t3,s7
   132c0:	01c80833          	add	a6,a6,t3
   132c4:	010b4b33          	xor	s6,s6,a6
   132c8:	008b1b93          	slli	s7,s6,0x8
   132cc:	018b5b13          	srli	s6,s6,0x18
   132d0:	017b4b33          	xor	s6,s6,s7
   132d4:	016484b3          	add	s1,s1,s6
   132d8:	009e4e33          	xor	t3,t3,s1
   132dc:	007e1b93          	slli	s7,t3,0x7
   132e0:	019e5e13          	srli	t3,t3,0x19
   132e4:	017e4e33          	xor	t3,t3,s7
   132e8:	01d888b3          	add	a7,a7,t4
   132ec:	0119c9b3          	xor	s3,s3,a7
   132f0:	01099b93          	slli	s7,s3,0x10
   132f4:	0109d993          	srli	s3,s3,0x10
   132f8:	0179c9b3          	xor	s3,s3,s7
   132fc:	01390933          	add	s2,s2,s3
   13300:	012eceb3          	xor	t4,t4,s2
   13304:	00ce9b93          	slli	s7,t4,0xc
   13308:	014ede93          	srli	t4,t4,0x14
   1330c:	017eceb3          	xor	t4,t4,s7
   13310:	01d888b3          	add	a7,a7,t4
   13314:	0119c9b3          	xor	s3,s3,a7
   13318:	00899b93          	slli	s7,s3,0x8
   1331c:	0189d993          	srli	s3,s3,0x18
   13320:	0179c9b3          	xor	s3,s3,s7
   13324:	01390933          	add	s2,s2,s3
   13328:	012eceb3          	xor	t4,t4,s2
   1332c:	007e9b93          	slli	s7,t4,0x7
   13330:	019ede93          	srli	t4,t4,0x19
   13334:	017eceb3          	xor	t4,t4,s7
   13338:	01e282b3          	add	t0,t0,t5
   1333c:	005a4a33          	xor	s4,s4,t0
   13340:	010a1b93          	slli	s7,s4,0x10
   13344:	010a5a13          	srli	s4,s4,0x10
   13348:	017a4a33          	xor	s4,s4,s7
   1334c:	014f8fb3          	add	t6,t6,s4
   13350:	01ff4f33          	xor	t5,t5,t6
   13354:	00cf1b93          	slli	s7,t5,0xc
   13358:	014f5f13          	srli	t5,t5,0x14
   1335c:	017f4f33          	xor	t5,t5,s7
   13360:	01e282b3          	add	t0,t0,t5
   13364:	005a4a33          	xor	s4,s4,t0
   13368:	008a1b93          	slli	s7,s4,0x8
   1336c:	018a5a13          	srli	s4,s4,0x18
   13370:	017a4a33          	xor	s4,s4,s7
   13374:	014f8fb3          	add	t6,t6,s4
   13378:	01ff4f33          	xor	t5,t5,t6
   1337c:	007f1b93          	slli	s7,t5,0x7
   13380:	019f5f13          	srli	t5,t5,0x19
   13384:	017f4f33          	xor	t5,t5,s7
   13388:	00730333          	add	t1,t1,t2
   1338c:	006acab3          	xor	s5,s5,t1
   13390:	010a9b93          	slli	s7,s5,0x10
   13394:	010ada93          	srli	s5,s5,0x10
   13398:	017acab3          	xor	s5,s5,s7
   1339c:	01540433          	add	s0,s0,s5
   133a0:	0083c3b3          	xor	t2,t2,s0
   133a4:	00c39b93          	slli	s7,t2,0xc
   133a8:	0143d393          	srli	t2,t2,0x14
   133ac:	0173c3b3          	xor	t2,t2,s7
   133b0:	00730333          	add	t1,t1,t2
   133b4:	006acab3          	xor	s5,s5,t1
   133b8:	008a9b93          	slli	s7,s5,0x8
   133bc:	018ada93          	srli	s5,s5,0x18
   133c0:	017acab3          	xor	s5,s5,s7
   133c4:	01540433          	add	s0,s0,s5
   133c8:	0083c3b3          	xor	t2,t2,s0
   133cc:	00739b93          	slli	s7,t2,0x7
   133d0:	0193d393          	srli	t2,t2,0x19
   133d4:	0173c3b3          	xor	t2,t2,s7
   133d8:	00780833          	add	a6,a6,t2
   133dc:	0109c9b3          	xor	s3,s3,a6
   133e0:	01099b93          	slli	s7,s3,0x10
   133e4:	0109d993          	srli	s3,s3,0x10
   133e8:	0179c9b3          	xor	s3,s3,s7
   133ec:	013f8fb3          	add	t6,t6,s3
   133f0:	01f3c3b3          	xor	t2,t2,t6
   133f4:	00c39b93          	slli	s7,t2,0xc
   133f8:	0143d393          	srli	t2,t2,0x14
   133fc:	0173c3b3          	xor	t2,t2,s7
   13400:	00780833          	add	a6,a6,t2
   13404:	0109c9b3          	xor	s3,s3,a6
   13408:	00899b93          	slli	s7,s3,0x8
   1340c:	0189d993          	srli	s3,s3,0x18
   13410:	0179c9b3          	xor	s3,s3,s7
   13414:	013f8fb3          	add	t6,t6,s3
   13418:	01f3c3b3          	xor	t2,t2,t6
   1341c:	00739b93          	slli	s7,t2,0x7
   13420:	0193d393          	srli	t2,t2,0x19
   13424:	0173c3b3          	xor	t2,t2,s7
   13428:	01c888b3          	add	a7,a7,t3
   1342c:	011a4a33          	xor	s4,s4,a7
   13430:	010a1b93          	slli	s7,s4,0x10
   13434:	010a5a13          	srli	s4,s4,0x10
   13438:	017a4a33          	xor	s4,s4,s7
   1343c:	01440433          	add	s0,s0,s4
   13440:	008e4e33          	xor	t3,t3,s0
   13444:	00ce1b93          	slli	s7,t3,0xc
   13448:	014e5e13          	srli	t3,t3,0x14
   1344c:	017e4e33          	xor	t3,t3,s7
   13450:	01c888b3          	add	a7,a7,t3
   13454:	011a4a33          	xor	s4,s4,a7
   13458:	008a1b93          	slli	s7,s4,0x8
   1345c:	018a5a13          	srli	s4,s4,0x18
   13460:	017a4a33          	xor	s4,s4,s7
   13464:	01440433          	add	s0,s0,s4
   13468:	008e4e33          	xor	t3,t3,s0
   1346c:	007e1b93          	slli	s7,t3,0x7
   13470:	019e5e13          	srli	t3,t3,0x19
   13474:	017e4e33          	xor	t3,t3,s7
   13478:	01d282b3          	add	t0,t0,t4
   1347c:	005acab3          	xor	s5,s5,t0
   13480:	010a9b93          	slli	s7,s5,0x10
   13484:	010ada93          	srli	s5,s5,0x10
   13488:	017acab3          	xor	s5,s5,s7
   1348c:	015484b3          	add	s1,s1,s5
   13490:	009eceb3          	xor	t4,t4,s1
   13494:	00ce9b93          	slli	s7,t4,0xc
   13498:	014ede93          	srli	t4,t4,0x14
   1349c:	017eceb3          	xor	t4,t4,s7
   134a0:	01d282b3          	add	t0,t0,t4
   134a4:	005acab3          	xor	s5,s5,t0
   134a8:	008a9b93          	slli	s7,s5,0x8
   134ac:	018ada93          	srli	s5,s5,0x18
   134b0:	017acab3          	xor	s5,s5,s7
   134b4:	015484b3          	add	s1,s1,s5
   134b8:	009eceb3          	xor	t4,t4,s1
   134bc:	007e9b93          	slli	s7,t4,0x7
   134c0:	019ede93          	srli	t4,t4,0x19
   134c4:	017eceb3          	xor	t4,t4,s7
   134c8:	01e30333          	add	t1,t1,t5
   134cc:	006b4b33          	xor	s6,s6,t1
   134d0:	010b1b93          	slli	s7,s6,0x10
   134d4:	010b5b13          	srli	s6,s6,0x10
   134d8:	017b4b33          	xor	s6,s6,s7
   134dc:	01690933          	add	s2,s2,s6
   134e0:	012f4f33          	xor	t5,t5,s2
   134e4:	00cf1b93          	slli	s7,t5,0xc
   134e8:	014f5f13          	srli	t5,t5,0x14
   134ec:	017f4f33          	xor	t5,t5,s7
   134f0:	01e30333          	add	t1,t1,t5
   134f4:	006b4b33          	xor	s6,s6,t1
   134f8:	008b1b93          	slli	s7,s6,0x8
   134fc:	018b5b13          	srli	s6,s6,0x18
   13500:	017b4b33          	xor	s6,s6,s7
   13504:	01690933          	add	s2,s2,s6
   13508:	012f4f33          	xor	t5,t5,s2
   1350c:	007f1b93          	slli	s7,t5,0x7
   13510:	019f5f13          	srli	t5,t5,0x19
   13514:	017f4f33          	xor	t5,t5,s7
   13518:	01c80833          	add	a6,a6,t3
   1351c:	010b4b33          	xor	s6,s6,a6
   13520:	010b1b93          	slli	s7,s6,0x10
   13524:	010b5b13          	srli	s6,s6,0x10
   13528:	017b4b33          	xor	s6,s6,s7
   1352c:	016484b3          	add	s1,s1,s6
   13530:	009e4e33          	xor	t3,t3,s1
   13534:	00ce1b93          	slli	s7,t3,0xc
   13538:	014e5e13          	srli	t3,t3,0x14
   1353c:	017e4e33          	xor	t3,t3,s7
   13540:	01c80833          	add	a6,a6,t3
   13544:	010b4b33          	xor	s6,s6,a6
   13548:	008b1b93          	slli	s7,s6,0x8
   1354c:	018b5b13          	srli	s6,s6,0x18
   13550:	017b4b33          	xor	s6,s6,s7
   13554:	016484b3          	add	s1,s1,s6
   13558:	009e4e33          	xor	t3,t3,s1
   1355c:	007e1b93          	slli	s7,t3,0x7
   13560:	019e5e13          	srli	t3,t3,0x19
   13564:	017e4e33          	xor	t3,t3,s7
   13568:	01d888b3          	add	a7,a7,t4
   1356c:	0119c9b3          	xor	s3,s3,a7
   13570:	01099b93          	slli	s7,s3,0x10
   13574:	0109d993          	srli	s3,s3,0x10
   13578:	0179c9b3          	xor	s3,s3,s7
   1357c:	01390933          	add	s2,s2,s3
   13580:	012eceb3          	xor	t4,t4,s2
   13584:	00ce9b93          	slli	s7,t4,0xc
   13588:	014ede93          	srli	t4,t4,0x14
   1358c:	017eceb3          	xor	t4,t4,s7
   13590:	01d888b3          	add	a7,a7,t4
   13594:	0119c9b3          	xor	s3,s3,a7
   13598:	00899b93          	slli	s7,s3,0x8
   1359c:	0189d993          	srli	s3,s3,0x18
   135a0:	0179c9b3          	xor	s3,s3,s7
   135a4:	01390933          	add	s2,s2,s3
   135a8:	012eceb3          	xor	t4,t4,s2
   135ac:	007e9b93          	slli	s7,t4,0x7
   135b0:	019ede93          	srli	t4,t4,0x19
   135b4:	017eceb3          	xor	t4,t4,s7
   135b8:	01e282b3          	add	t0,t0,t5
   135bc:	005a4a33          	xor	s4,s4,t0
   135c0:	010a1b93          	slli	s7,s4,0x10
   135c4:	010a5a13          	srli	s4,s4,0x10
   135c8:	017a4a33          	xor	s4,s4,s7
   135cc:	014f8fb3          	add	t6,t6,s4
   135d0:	01ff4f33          	xor	t5,t5,t6
   135d4:	00cf1b93          	slli	s7,t5,0xc
   135d8:	014f5f13          	srli	t5,t5,0x14
   135dc:	017f4f33          	xor	t5,t5,s7
   135e0:	01e282b3          	add	t0,t0,t5
   135e4:	005a4a33          	xor	s4,s4,t0
   135e8:	008a1b93          	slli	s7,s4,0x8
   135ec:	018a5a13          	srli	s4,s4,0x18
   135f0:	017a4a33          	xor	s4,s4,s7
   135f4:	014f8fb3          	add	t6,t6,s4
   135f8:	01ff4f33          	xor	t5,t5,t6
   135fc:	007f1b93          	slli	s7,t5,0x7
   13600:	019f5f13          	srli	t5,t5,0x19
   13604:	017f4f33          	xor	t5,t5,s7
   13608:	00730333          	add	t1,t1,t2
   1360c:	006acab3          	xor	s5,s5,t1
   13610:	010a9b93          	slli	s7,s5,0x10
   13614:	010ada93          	srli	s5,s5,0x10
   13618:	017acab3          	xor	s5,s5,s7
   1361c:	01540433          	add	s0,s0,s5
   13620:	0083c3b3          	xor	t2,t2,s0
   13624:	00c39b93          	slli	s7,t2,0xc
   13628:	0143d393          	srli	t2,t2,0x14
   1362c:	0173c3b3          	xor	t2,t2,s7
   13630:	00730333          	add	t1,t1,t2
   13634:	006acab3          	xor	s5,s5,t1
   13638:	008a9b93          	slli	s7,s5,0x8
   1363c:	018ada93          	srli	s5,s5,0x18
   13640:	017acab3          	xor	s5,s5,s7
   13644:	01540433          	add	s0,s0,s5
   13648:	0083c3b3          	xor	t2,t2,s0
   1364c:	00739b93          	slli	s7,t2,0x7
   13650:	0193d393          	srli	t2,t2,0x19
   13654:	0173c3b3          	xor	t2,t2,s7
   13658:	00780833          	add	a6,a6,t2
   1365c:	0109c9b3          	xor	s3,s3,a6
   13660:	01099b93          	slli	s7,s3,0x10
   13664:	0109d993          	srli	s3,s3,0x10
   13668:	0179c9b3          	xor	s3,s3,s7
   1366c:	013f8fb3          	add	t6,t6,s3
   13670:	01f3c3b3          	xor	t2,t2,t6
   13674:	00c39b93          	slli	s7,t2,0xc
   13678:	0143d393          	srli	t2,t2,0x14
   1367c:	0173c3b3          	xor	t2,t2,s7
   13680:	00780833          	add	a6,a6,t2
   13684:	0109c9b3          	xor	s3,s3,a6
   13688:	00899b93          	slli	s7,s3,0x8
   1368c:	0189d993          	srli	s3,s3,0x18
   13690:	0179c9b3          	xor	s3,s3,s7
   13694:	013f8fb3          	add	t6,t6,s3
   13698:	01f3c3b3          	xor	t2,t2,t6
   1369c:	00739b93          	slli	s7,t2,0x7
   136a0:	0193d393          	srli	t2,t2,0x19
   136a4:	0173c3b3          	xor	t2,t2,s7
   136a8:	01c888b3          	add	a7,a7,t3
   136ac:	011a4a33          	xor	s4,s4,a7
   136b0:	010a1b93          	slli	s7,s4,0x10
   136b4:	010a5a13          	srli	s4,s4,0x10
   136b8:	017a4a33          	xor	s4,s4,s7
   136bc:	01440433          	add	s0,s0,s4
   136c0:	008e4e33          	xor	t3,t3,s0
   136c4:	00ce1b93          	slli	s7,t3,0xc
   136c8:	014e5e13          	srli	t3,t3,0x14
   136cc:	017e4e33          	xor	t3,t3,s7
   136d0:	01c888b3          	add	a7,a7,t3
   136d4:	011a4a33          	xor	s4,s4,a7
   136d8:	008a1b93          	slli	s7,s4,0x8
   136dc:	018a5a13          	srli	s4,s4,0x18
   136e0:	017a4a33          	xor	s4,s4,s7
   136e4:	01440433          	add	s0,s0,s4
   136e8:	008e4e33          	xor	t3,t3,s0
   136ec:	007e1b93          	slli	s7,t3,0x7
   136f0:	019e5e13          	srli	t3,t3,0x19
   136f4:	017e4e33          	xor	t3,t3,s7
   136f8:	01d282b3          	add	t0,t0,t4
   136fc:	005acab3          	xor	s5,s5,t0
   13700:	010a9b93          	slli	s7,s5,0x10
   13704:	010ada93          	srli	s5,s5,0x10
   13708:	017acab3          	xor	s5,s5,s7
   1370c:	015484b3          	add	s1,s1,s5
   13710:	009eceb3          	xor	t4,t4,s1
   13714:	00ce9b93          	slli	s7,t4,0xc
   13718:	014ede93          	srli	t4,t4,0x14
   1371c:	017eceb3          	xor	t4,t4,s7
   13720:	01d282b3          	add	t0,t0,t4
   13724:	005acab3          	xor	s5,s5,t0
   13728:	008a9b93          	slli	s7,s5,0x8
   1372c:	018ada93          	srli	s5,s5,0x18
   13730:	017acab3          	xor	s5,s5,s7
   13734:	015484b3          	add	s1,s1,s5
   13738:	009eceb3          	xor	t4,t4,s1
   1373c:	007e9b93          	slli	s7,t4,0x7
   13740:	019ede93          	srli	t4,t4,0x19
   13744:	017eceb3          	xor	t4,t4,s7
   13748:	01e30333          	add	t1,t1,t5
   1374c:	006b4b33          	xor	s6,s6,t1
   13750:	010b1b93          	slli	s7,s6,0x10
   13754:	010b5b13          	srli	s6,s6,0x10
   13758:	017b4b33          	xor	s6,s6,s7
   1375c:	01690933          	add	s2,s2,s6
   13760:	012f4f33          	xor	t5,t5,s2
   13764:	00cf1b93          	slli	s7,t5,0xc
   13768:	014f5f13          	srli	t5,t5,0x14
   1376c:	017f4f33          	xor	t5,t5,s7
   13770:	01e30333          	add	t1,t1,t5
   13774:	006b4b33          	xor	s6,s6,t1
   13778:	008b1b93          	slli	s7,s6,0x8
   1377c:	018b5b13          	srli	s6,s6,0x18
   13780:	017b4b33          	xor	s6,s6,s7
   13784:	01690933          	add	s2,s2,s6
   13788:	012f4f33          	xor	t5,t5,s2
   1378c:	007f1b93          	slli	s7,t5,0x7
   13790:	019f5f13          	srli	t5,t5,0x19
   13794:	017f4f33          	xor	t5,t5,s7
   13798:	01c80833          	add	a6,a6,t3
   1379c:	010b4b33          	xor	s6,s6,a6
   137a0:	010b1b93          	slli	s7,s6,0x10
   137a4:	010b5b13          	srli	s6,s6,0x10
   137a8:	017b4b33          	xor	s6,s6,s7
   137ac:	016484b3          	add	s1,s1,s6
   137b0:	009e4e33          	xor	t3,t3,s1
   137b4:	00ce1b93          	slli	s7,t3,0xc
   137b8:	014e5e13          	srli	t3,t3,0x14
   137bc:	017e4e33          	xor	t3,t3,s7
   137c0:	01c80833          	add	a6,a6,t3
   137c4:	010b4b33          	xor	s6,s6,a6
   137c8:	008b1b93          	slli	s7,s6,0x8
   137cc:	018b5b13          	srli	s6,s6,0x18
   137d0:	017b4b33          	xor	s6,s6,s7
   137d4:	016484b3          	add	s1,s1,s6
   137d8:	009e4e33          	xor	t3,t3,s1
   137dc:	007e1b93          	slli	s7,t3,0x7
   137e0:	019e5e13          	srli	t3,t3,0x19
   137e4:	017e4e33          	xor	t3,t3,s7
   137e8:	01d888b3          	add	a7,a7,t4
   137ec:	0119c9b3          	xor	s3,s3,a7
   137f0:	01099b93          	slli	s7,s3,0x10
   137f4:	0109d993          	srli	s3,s3,0x10
   137f8:	0179c9b3          	xor	s3,s3,s7
   137fc:	01390933          	add	s2,s2,s3
   13800:	012eceb3          	xor	t4,t4,s2
   13804:	00ce9b93          	slli	s7,t4,0xc
   13808:	014ede93          	srli	t4,t4,0x14
   1380c:	017eceb3          	xor	t4,t4,s7
   13810:	01d888b3          	add	a7,a7,t4
   13814:	0119c9b3          	xor	s3,s3,a7
   13818:	00899b93          	slli	s7,s3,0x8
   1381c:	0189d993          	srli	s3,s3,0x18
   13820:	0179c9b3          	xor	s3,s3,s7
   13824:	01390933          	add	s2,s2,s3
   13828:	012eceb3          	xor	t4,t4,s2
   1382c:	007e9b93          	slli	s7,t4,0x7
   13830:	019ede93          	srli	t4,t4,0x19
   13834:	017eceb3          	xor	t4,t4,s7
   13838:	01e282b3          	add	t0,t0,t5
   1383c:	005a4a33          	xor	s4,s4,t0
   13840:	010a1b93          	slli	s7,s4,0x10
   13844:	010a5a13          	srli	s4,s4,0x10
   13848:	017a4a33          	xor	s4,s4,s7
   1384c:	014f8fb3          	add	t6,t6,s4
   13850:	01ff4f33          	xor	t5,t5,t6
   13854:	00cf1b93          	slli	s7,t5,0xc
   13858:	014f5f13          	srli	t5,t5,0x14
   1385c:	017f4f33          	xor	t5,t5,s7
   13860:	01e282b3          	add	t0,t0,t5
   13864:	005a4a33          	xor	s4,s4,t0
   13868:	008a1b93          	slli	s7,s4,0x8
   1386c:	018a5a13          	srli	s4,s4,0x18
   13870:	017a4a33          	xor	s4,s4,s7
   13874:	014f8fb3          	add	t6,t6,s4
   13878:	01ff4f33          	xor	t5,t5,t6
   1387c:	007f1b93          	slli	s7,t5,0x7
   13880:	019f5f13          	srli	t5,t5,0x19
   13884:	017f4f33          	xor	t5,t5,s7
   13888:	00730333          	add	t1,t1,t2
   1388c:	006acab3          	xor	s5,s5,t1
   13890:	010a9b93          	slli	s7,s5,0x10
   13894:	010ada93          	srli	s5,s5,0x10
   13898:	017acab3          	xor	s5,s5,s7
   1389c:	01540433          	add	s0,s0,s5
   138a0:	0083c3b3          	xor	t2,t2,s0
   138a4:	00c39b93          	slli	s7,t2,0xc
   138a8:	0143d393          	srli	t2,t2,0x14
   138ac:	0173c3b3          	xor	t2,t2,s7
   138b0:	00730333          	add	t1,t1,t2
   138b4:	006acab3          	xor	s5,s5,t1
   138b8:	008a9b93          	slli	s7,s5,0x8
   138bc:	018ada93          	srli	s5,s5,0x18
   138c0:	017acab3          	xor	s5,s5,s7
   138c4:	01540433          	add	s0,s0,s5
   138c8:	0083c3b3          	xor	t2,t2,s0
   138cc:	00739b93          	slli	s7,t2,0x7
   138d0:	0193d393          	srli	t2,t2,0x19
   138d4:	0173c3b3          	xor	t2,t2,s7
   138d8:	00780833          	add	a6,a6,t2
   138dc:	0109c9b3          	xor	s3,s3,a6
   138e0:	01099b93          	slli	s7,s3,0x10
   138e4:	0109d993          	srli	s3,s3,0x10
   138e8:	0179c9b3          	xor	s3,s3,s7
   138ec:	013f8fb3          	add	t6,t6,s3
   138f0:	01f3c3b3          	xor	t2,t2,t6
   138f4:	00c39b93          	slli	s7,t2,0xc
   138f8:	0143d393          	srli	t2,t2,0x14
   138fc:	0173c3b3          	xor	t2,t2,s7
   13900:	00780833          	add	a6,a6,t2
   13904:	0109c9b3          	xor	s3,s3,a6
   13908:	00899b93          	slli	s7,s3,0x8
   1390c:	0189d993          	srli	s3,s3,0x18
   13910:	0179c9b3          	xor	s3,s3,s7
   13914:	013f8fb3          	add	t6,t6,s3
   13918:	01f3c3b3          	xor	t2,t2,t6
   1391c:	00739b93          	slli	s7,t2,0x7
   13920:	0193d393          	srli	t2,t2,0x19
   13924:	0173c3b3          	xor	t2,t2,s7
   13928:	01c888b3          	add	a7,a7,t3
   1392c:	011a4a33          	xor	s4,s4,a7
   13930:	010a1b93          	slli	s7,s4,0x10
   13934:	010a5a13          	srli	s4,s4,0x10
   13938:	017a4a33          	xor	s4,s4,s7
   1393c:	01440433          	add	s0,s0,s4
   13940:	008e4e33          	xor	t3,t3,s0
   13944:	00ce1b93          	slli	s7,t3,0xc
   13948:	014e5e13          	srli	t3,t3,0x14
   1394c:	017e4e33          	xor	t3,t3,s7
   13950:	01c888b3          	add	a7,a7,t3
   13954:	011a4a33          	xor	s4,s4,a7
   13958:	008a1b93          	slli	s7,s4,0x8
   1395c:	018a5a13          	srli	s4,s4,0x18
   13960:	017a4a33          	xor	s4,s4,s7
   13964:	01440433          	add	s0,s0,s4
   13968:	008e4e33          	xor	t3,t3,s0
   1396c:	007e1b93          	slli	s7,t3,0x7
   13970:	019e5e13          	srli	t3,t3,0x19
   13974:	017e4e33          	xor	t3,t3,s7
   13978:	01d282b3          	add	t0,t0,t4
   1397c:	005acab3          	xor	s5,s5,t0
   13980:	010a9b93          	slli	s7,s5,0x10
   13984:	010ada93          	srli	s5,s5,0x10
   13988:	017acab3          	xor	s5,s5,s7
   1398c:	015484b3          	add	s1,s1,s5
   13990:	009eceb3          	xor	t4,t4,s1
   13994:	00ce9b93          	slli	s7,t4,0xc
   13998:	014ede93          	srli	t4,t4,0x14
   1399c:	017eceb3          	xor	t4,t4,s7
   139a0:	01d282b3          	add	t0,t0,t4
   139a4:	005acab3          	xor	s5,s5,t0
   139a8:	008a9b93          	slli	s7,s5,0x8
   139ac:	018ada93          	srli	s5,s5,0x18
   139b0:	017acab3          	xor	s5,s5,s7
   139b4:	015484b3          	add	s1,s1,s5
   139b8:	009eceb3          	xor	t4,t4,s1
   139bc:	007e9b93          	slli	s7,t4,0x7
   139c0:	019ede93          	srli	t4,t4,0x19
   139c4:	017eceb3          	xor	t4,t4,s7
   139c8:	01e30333          	add	t1,t1,t5
   139cc:	006b4b33          	xor	s6,s6,t1
   139d0:	010b1b93          	slli	s7,s6,0x10
   139d4:	010b5b13          	srli	s6,s6,0x10
   139d8:	017b4b33          	xor	s6,s6,s7
   139dc:	01690933          	add	s2,s2,s6
   139e0:	012f4f33          	xor	t5,t5,s2
   139e4:	00cf1b93          	slli	s7,t5,0xc
   139e8:	014f5f13          	srli	t5,t5,0x14
   139ec:	017f4f33          	xor	t5,t5,s7
   139f0:	01e30333          	add	t1,t1,t5
   139f4:	006b4b33          	xor	s6,s6,t1
   139f8:	008b1b93          	slli	s7,s6,0x8
   139fc:	018b5b13          	srli	s6,s6,0x18
   13a00:	017b4b33          	xor	s6,s6,s7
   13a04:	01690933          	add	s2,s2,s6
   13a08:	012f4f33          	xor	t5,t5,s2
   13a0c:	007f1b93          	slli	s7,t5,0x7
   13a10:	019f5f13          	srli	t5,t5,0x19
   13a14:	017f4f33          	xor	t5,t5,s7
   13a18:	01c80833          	add	a6,a6,t3
   13a1c:	010b4b33          	xor	s6,s6,a6
   13a20:	010b1b93          	slli	s7,s6,0x10
   13a24:	010b5b13          	srli	s6,s6,0x10
   13a28:	017b4b33          	xor	s6,s6,s7
   13a2c:	016484b3          	add	s1,s1,s6
   13a30:	009e4e33          	xor	t3,t3,s1
   13a34:	00ce1b93          	slli	s7,t3,0xc
   13a38:	014e5e13          	srli	t3,t3,0x14
   13a3c:	017e4e33          	xor	t3,t3,s7
   13a40:	01c80833          	add	a6,a6,t3
   13a44:	010b4b33          	xor	s6,s6,a6
   13a48:	008b1b93          	slli	s7,s6,0x8
   13a4c:	018b5b13          	srli	s6,s6,0x18
   13a50:	017b4b33          	xor	s6,s6,s7
   13a54:	016484b3          	add	s1,s1,s6
   13a58:	009e4e33          	xor	t3,t3,s1
   13a5c:	007e1b93          	slli	s7,t3,0x7
   13a60:	019e5e13          	srli	t3,t3,0x19
   13a64:	017e4e33          	xor	t3,t3,s7
   13a68:	01d888b3          	add	a7,a7,t4
   13a6c:	0119c9b3          	xor	s3,s3,a7
   13a70:	01099b93          	slli	s7,s3,0x10
   13a74:	0109d993          	srli	s3,s3,0x10
   13a78:	0179c9b3          	xor	s3,s3,s7
   13a7c:	01390933          	add	s2,s2,s3
   13a80:	012eceb3          	xor	t4,t4,s2
   13a84:	00ce9b93          	slli	s7,t4,0xc
   13a88:	014ede93          	srli	t4,t4,0x14
   13a8c:	017eceb3          	xor	t4,t4,s7
   13a90:	01d888b3          	add	a7,a7,t4
   13a94:	0119c9b3          	xor	s3,s3,a7
   13a98:	00899b93          	slli	s7,s3,0x8
   13a9c:	0189d993          	srli	s3,s3,0x18
   13aa0:	0179c9b3          	xor	s3,s3,s7
   13aa4:	01390933          	add	s2,s2,s3
   13aa8:	012eceb3          	xor	t4,t4,s2
   13aac:	007e9b93          	slli	s7,t4,0x7
   13ab0:	019ede93          	srli	t4,t4,0x19
   13ab4:	017eceb3          	xor	t4,t4,s7
   13ab8:	01e282b3          	add	t0,t0,t5
   13abc:	005a4a33          	xor	s4,s4,t0
   13ac0:	010a1b93          	slli	s7,s4,0x10
   13ac4:	010a5a13          	srli	s4,s4,0x10
   13ac8:	017a4a33          	xor	s4,s4,s7
   13acc:	014f8fb3          	add	t6,t6,s4
   13ad0:	01ff4f33          	xor	t5,t5,t6
   13ad4:	00cf1b93          	slli	s7,t5,0xc
   13ad8:	014f5f13          	srli	t5,t5,0x14
   13adc:	017f4f33          	xor	t5,t5,s7
   13ae0:	01e282b3          	add	t0,t0,t5
   13ae4:	005a4a33          	xor	s4,s4,t0
   13ae8:	008a1b93          	slli	s7,s4,0x8
   13aec:	018a5a13          	srli	s4,s4,0x18
   13af0:	017a4a33          	xor	s4,s4,s7
   13af4:	014f8fb3          	add	t6,t6,s4
   13af8:	01ff4f33          	xor	t5,t5,t6
   13afc:	007f1b93          	slli	s7,t5,0x7
   13b00:	019f5f13          	srli	t5,t5,0x19
   13b04:	017f4f33          	xor	t5,t5,s7
   13b08:	00730333          	add	t1,t1,t2
   13b0c:	006acab3          	xor	s5,s5,t1
   13b10:	010a9b93          	slli	s7,s5,0x10
   13b14:	010ada93          	srli	s5,s5,0x10
   13b18:	017acab3          	xor	s5,s5,s7
   13b1c:	01540433          	add	s0,s0,s5
   13b20:	0083c3b3          	xor	t2,t2,s0
   13b24:	00c39b93          	slli	s7,t2,0xc
   13b28:	0143d393          	srli	t2,t2,0x14
   13b2c:	0173c3b3          	xor	t2,t2,s7
   13b30:	00730333          	add	t1,t1,t2
   13b34:	006acab3          	xor	s5,s5,t1
   13b38:	008a9b93          	slli	s7,s5,0x8
   13b3c:	018ada93          	srli	s5,s5,0x18
   13b40:	017acab3          	xor	s5,s5,s7
   13b44:	01540433          	add	s0,s0,s5
   13b48:	0083c3b3          	xor	t2,t2,s0
   13b4c:	00739b93          	slli	s7,t2,0x7
   13b50:	0193d393          	srli	t2,t2,0x19
   13b54:	0173c3b3          	xor	t2,t2,s7
   13b58:	00780833          	add	a6,a6,t2
   13b5c:	0109c9b3          	xor	s3,s3,a6
   13b60:	01099b93          	slli	s7,s3,0x10
   13b64:	0109d993          	srli	s3,s3,0x10
   13b68:	0179c9b3          	xor	s3,s3,s7
   13b6c:	013f8fb3          	add	t6,t6,s3
   13b70:	01f3c3b3          	xor	t2,t2,t6
   13b74:	00c39b93          	slli	s7,t2,0xc
   13b78:	0143d393          	srli	t2,t2,0x14
   13b7c:	0173c3b3          	xor	t2,t2,s7
   13b80:	00780833          	add	a6,a6,t2
   13b84:	0109c9b3          	xor	s3,s3,a6
   13b88:	00899b93          	slli	s7,s3,0x8
   13b8c:	0189d993          	srli	s3,s3,0x18
   13b90:	0179c9b3          	xor	s3,s3,s7
   13b94:	013f8fb3          	add	t6,t6,s3
   13b98:	01f3c3b3          	xor	t2,t2,t6
   13b9c:	00739b93          	slli	s7,t2,0x7
   13ba0:	0193d393          	srli	t2,t2,0x19
   13ba4:	0173c3b3          	xor	t2,t2,s7
   13ba8:	01c888b3          	add	a7,a7,t3
   13bac:	011a4a33          	xor	s4,s4,a7
   13bb0:	010a1b93          	slli	s7,s4,0x10
   13bb4:	010a5a13          	srli	s4,s4,0x10
   13bb8:	017a4a33          	xor	s4,s4,s7
   13bbc:	01440433          	add	s0,s0,s4
   13bc0:	008e4e33          	xor	t3,t3,s0
   13bc4:	00ce1b93          	slli	s7,t3,0xc
   13bc8:	014e5e13          	srli	t3,t3,0x14
   13bcc:	017e4e33          	xor	t3,t3,s7
   13bd0:	01c888b3          	add	a7,a7,t3
   13bd4:	011a4a33          	xor	s4,s4,a7
   13bd8:	008a1b93          	slli	s7,s4,0x8
   13bdc:	018a5a13          	srli	s4,s4,0x18
   13be0:	017a4a33          	xor	s4,s4,s7
   13be4:	01440433          	add	s0,s0,s4
   13be8:	008e4e33          	xor	t3,t3,s0
   13bec:	007e1b93          	slli	s7,t3,0x7
   13bf0:	019e5e13          	srli	t3,t3,0x19
   13bf4:	017e4e33          	xor	t3,t3,s7
   13bf8:	01d282b3          	add	t0,t0,t4
   13bfc:	005acab3          	xor	s5,s5,t0
   13c00:	010a9b93          	slli	s7,s5,0x10
   13c04:	010ada93          	srli	s5,s5,0x10
   13c08:	017acab3          	xor	s5,s5,s7
   13c0c:	015484b3          	add	s1,s1,s5
   13c10:	009eceb3          	xor	t4,t4,s1
   13c14:	00ce9b93          	slli	s7,t4,0xc
   13c18:	014ede93          	srli	t4,t4,0x14
   13c1c:	017eceb3          	xor	t4,t4,s7
   13c20:	01d282b3          	add	t0,t0,t4
   13c24:	005acab3          	xor	s5,s5,t0
   13c28:	008a9b93          	slli	s7,s5,0x8
   13c2c:	018ada93          	srli	s5,s5,0x18
   13c30:	017acab3          	xor	s5,s5,s7
   13c34:	015484b3          	add	s1,s1,s5
   13c38:	009eceb3          	xor	t4,t4,s1
   13c3c:	007e9b93          	slli	s7,t4,0x7
   13c40:	019ede93          	srli	t4,t4,0x19
   13c44:	017eceb3          	xor	t4,t4,s7
   13c48:	01e30333          	add	t1,t1,t5
   13c4c:	006b4b33          	xor	s6,s6,t1
   13c50:	010b1b93          	slli	s7,s6,0x10
   13c54:	010b5b13          	srli	s6,s6,0x10
   13c58:	017b4b33          	xor	s6,s6,s7
   13c5c:	01690933          	add	s2,s2,s6
   13c60:	012f4f33          	xor	t5,t5,s2
   13c64:	00cf1b93          	slli	s7,t5,0xc
   13c68:	014f5f13          	srli	t5,t5,0x14
   13c6c:	017f4f33          	xor	t5,t5,s7
   13c70:	01e30333          	add	t1,t1,t5
   13c74:	006b4b33          	xor	s6,s6,t1
   13c78:	008b1b93          	slli	s7,s6,0x8
   13c7c:	018b5b13          	srli	s6,s6,0x18
   13c80:	017b4b33          	xor	s6,s6,s7
   13c84:	01690933          	add	s2,s2,s6
   13c88:	012f4f33          	xor	t5,t5,s2
   13c8c:	007f1b93          	slli	s7,t5,0x7
   13c90:	019f5f13          	srli	t5,t5,0x19
   13c94:	017f4f33          	xor	t5,t5,s7
   13c98:	01c80833          	add	a6,a6,t3
   13c9c:	010b4b33          	xor	s6,s6,a6
   13ca0:	010b1b93          	slli	s7,s6,0x10
   13ca4:	010b5b13          	srli	s6,s6,0x10
   13ca8:	017b4b33          	xor	s6,s6,s7
   13cac:	016484b3          	add	s1,s1,s6
   13cb0:	009e4e33          	xor	t3,t3,s1
   13cb4:	00ce1b93          	slli	s7,t3,0xc
   13cb8:	014e5e13          	srli	t3,t3,0x14
   13cbc:	017e4e33          	xor	t3,t3,s7
   13cc0:	01c80833          	add	a6,a6,t3
   13cc4:	010b4b33          	xor	s6,s6,a6
   13cc8:	008b1b93          	slli	s7,s6,0x8
   13ccc:	018b5b13          	srli	s6,s6,0x18
   13cd0:	017b4b33          	xor	s6,s6,s7
   13cd4:	016484b3          	add	s1,s1,s6
   13cd8:	009e4e33          	xor	t3,t3,s1
   13cdc:	007e1b93          	slli	s7,t3,0x7
   13ce0:	019e5e13          	srli	t3,t3,0x19
   13ce4:	017e4e33          	xor	t3,t3,s7
   13ce8:	01d888b3          	add	a7,a7,t4
   13cec:	0119c9b3          	xor	s3,s3,a7
   13cf0:	01099b93          	slli	s7,s3,0x10
   13cf4:	0109d993          	srli	s3,s3,0x10
   13cf8:	0179c9b3          	xor	s3,s3,s7
   13cfc:	01390933          	add	s2,s2,s3
   13d00:	012eceb3          	xor	t4,t4,s2
   13d04:	00ce9b93          	slli	s7,t4,0xc
   13d08:	014ede93          	srli	t4,t4,0x14
   13d0c:	017eceb3          	xor	t4,t4,s7
   13d10:	01d888b3          	add	a7,a7,t4
   13d14:	0119c9b3          	xor	s3,s3,a7
   13d18:	00899b93          	slli	s7,s3,0x8
   13d1c:	0189d993          	srli	s3,s3,0x18
   13d20:	0179c9b3          	xor	s3,s3,s7
   13d24:	01390933          	add	s2,s2,s3
   13d28:	012eceb3          	xor	t4,t4,s2
   13d2c:	007e9b93          	slli	s7,t4,0x7
   13d30:	019ede93          	srli	t4,t4,0x19
   13d34:	017eceb3          	xor	t4,t4,s7
   13d38:	01e282b3          	add	t0,t0,t5
   13d3c:	005a4a33          	xor	s4,s4,t0
   13d40:	010a1b93          	slli	s7,s4,0x10
   13d44:	010a5a13          	srli	s4,s4,0x10
   13d48:	017a4a33          	xor	s4,s4,s7
   13d4c:	014f8fb3          	add	t6,t6,s4
   13d50:	01ff4f33          	xor	t5,t5,t6
   13d54:	00cf1b93          	slli	s7,t5,0xc
   13d58:	014f5f13          	srli	t5,t5,0x14
   13d5c:	017f4f33          	xor	t5,t5,s7
   13d60:	01e282b3          	add	t0,t0,t5
   13d64:	005a4a33          	xor	s4,s4,t0
   13d68:	008a1b93          	slli	s7,s4,0x8
   13d6c:	018a5a13          	srli	s4,s4,0x18
   13d70:	017a4a33          	xor	s4,s4,s7
   13d74:	014f8fb3          	add	t6,t6,s4
   13d78:	01ff4f33          	xor	t5,t5,t6
   13d7c:	007f1b93          	slli	s7,t5,0x7
   13d80:	019f5f13          	srli	t5,t5,0x19
   13d84:	017f4f33          	xor	t5,t5,s7
   13d88:	00730333          	add	t1,t1,t2
   13d8c:	006acab3          	xor	s5,s5,t1
   13d90:	010a9b93          	slli	s7,s5,0x10
   13d94:	010ada93          	srli	s5,s5,0x10
   13d98:	017acab3          	xor	s5,s5,s7
   13d9c:	01540433          	add	s0,s0,s5
   13da0:	0083c3b3          	xor	t2,t2,s0
   13da4:	00c39b93          	slli	s7,t2,0xc
   13da8:	0143d393          	srli	t2,t2,0x14
   13dac:	0173c3b3          	xor	t2,t2,s7
   13db0:	00730333          	add	t1,t1,t2
   13db4:	006acab3          	xor	s5,s5,t1
   13db8:	008a9b93          	slli	s7,s5,0x8
   13dbc:	018ada93          	srli	s5,s5,0x18
   13dc0:	017acab3          	xor	s5,s5,s7
   13dc4:	01540433          	add	s0,s0,s5
   13dc8:	0083c3b3          	xor	t2,t2,s0
   13dcc:	00739b93          	slli	s7,t2,0x7
   13dd0:	0193d393          	srli	t2,t2,0x19
   13dd4:	0173c3b3          	xor	t2,t2,s7
   13dd8:	000c2b83          	lw	s7,0(s8)
   13ddc:	004c2c83          	lw	s9,4(s8)
   13de0:	01780833          	add	a6,a6,s7
   13de4:	019888b3          	add	a7,a7,s9
   13de8:	008c2b83          	lw	s7,8(s8)
   13dec:	00cc2c83          	lw	s9,12(s8)
   13df0:	017282b3          	add	t0,t0,s7
   13df4:	01930333          	add	t1,t1,s9
   13df8:	0006ab83          	lw	s7,0(a3)
   13dfc:	0046ac83          	lw	s9,4(a3)
   13e00:	017383b3          	add	t2,t2,s7
   13e04:	019e0e33          	add	t3,t3,s9
   13e08:	0086ab83          	lw	s7,8(a3)
   13e0c:	00c6ac83          	lw	s9,12(a3)
   13e10:	017e8eb3          	add	t4,t4,s7
   13e14:	019f0f33          	add	t5,t5,s9
   13e18:	0106ab83          	lw	s7,16(a3)
   13e1c:	0146ac83          	lw	s9,20(a3)
   13e20:	017f8fb3          	add	t6,t6,s7
   13e24:	01940433          	add	s0,s0,s9
   13e28:	0186ab83          	lw	s7,24(a3)
   13e2c:	01c6ac83          	lw	s9,28(a3)
   13e30:	017484b3          	add	s1,s1,s7
   13e34:	01990933          	add	s2,s2,s9
   13e38:	00f989b3          	add	s3,s3,a5
   13e3c:	00072b83          	lw	s7,0(a4)
   13e40:	00472c83          	lw	s9,4(a4)
   13e44:	017a0a33          	add	s4,s4,s7
   13e48:	00872b83          	lw	s7,8(a4)
   13e4c:	019a8ab3          	add	s5,s5,s9
   13e50:	017b0b33          	add	s6,s6,s7
   13e54:	00400693          	li	a3,4
   13e58:	00001717          	auipc	a4,0x1
   13e5c:	ae870713          	addi	a4,a4,-1304 # 14940 <chacha20masks>
   13e60:	00d64c63          	blt	a2,a3,13e78 <chacha20+0x34c0>
   13e64:	0005ab83          	lw	s7,0(a1)
   13e68:	ffc60613          	addi	a2,a2,-4
   13e6c:	01784833          	xor	a6,a6,s7
   13e70:	01052023          	sw	a6,0(a0)
   13e74:	0280006f          	j	13e9c <chacha20+0x34e4>
   13e78:	36c05663          	blez	a2,141e4 <chacha20+0x382c>
   13e7c:	00261613          	slli	a2,a2,0x2
   13e80:	00e60633          	add	a2,a2,a4
   13e84:	0005ab83          	lw	s7,0(a1)
   13e88:	00062c03          	lw	s8,0(a2)
   13e8c:	01784833          	xor	a6,a6,s7
   13e90:	01887833          	and	a6,a6,s8
   13e94:	01052023          	sw	a6,0(a0)
   13e98:	34c0006f          	j	141e4 <chacha20+0x382c>
   13e9c:	00d64c63          	blt	a2,a3,13eb4 <chacha20+0x34fc>
   13ea0:	0045ab83          	lw	s7,4(a1)
   13ea4:	ffc60613          	addi	a2,a2,-4
   13ea8:	0178c8b3          	xor	a7,a7,s7
   13eac:	01152223          	sw	a7,4(a0)
   13eb0:	0280006f          	j	13ed8 <chacha20+0x3520>
   13eb4:	32c05863          	blez	a2,141e4 <chacha20+0x382c>
   13eb8:	00261613          	slli	a2,a2,0x2
   13ebc:	00e60633          	add	a2,a2,a4
   13ec0:	0045ab83          	lw	s7,4(a1)
   13ec4:	00062c03          	lw	s8,0(a2)
   13ec8:	0178c8b3          	xor	a7,a7,s7
   13ecc:	0188f8b3          	and	a7,a7,s8
   13ed0:	01152223          	sw	a7,4(a0)
   13ed4:	3100006f          	j	141e4 <chacha20+0x382c>
   13ed8:	00d64c63          	blt	a2,a3,13ef0 <chacha20+0x3538>
   13edc:	0085ab83          	lw	s7,8(a1)
   13ee0:	ffc60613          	addi	a2,a2,-4
   13ee4:	0172c2b3          	xor	t0,t0,s7
   13ee8:	00552423          	sw	t0,8(a0)
   13eec:	0280006f          	j	13f14 <chacha20+0x355c>
   13ef0:	2ec05a63          	blez	a2,141e4 <chacha20+0x382c>
   13ef4:	00261613          	slli	a2,a2,0x2
   13ef8:	00e60633          	add	a2,a2,a4
   13efc:	0085ab83          	lw	s7,8(a1)
   13f00:	00062c03          	lw	s8,0(a2)
   13f04:	0172c2b3          	xor	t0,t0,s7
   13f08:	0182f2b3          	and	t0,t0,s8
   13f0c:	00552423          	sw	t0,8(a0)
   13f10:	2d40006f          	j	141e4 <chacha20+0x382c>
   13f14:	00d64c63          	blt	a2,a3,13f2c <chacha20+0x3574>
   13f18:	00c5ab83          	lw	s7,12(a1)
   13f1c:	ffc60613          	addi	a2,a2,-4
   13f20:	01734333          	xor	t1,t1,s7
   13f24:	00652623          	sw	t1,12(a0)
   13f28:	0280006f          	j	13f50 <chacha20+0x3598>
   13f2c:	2ac05c63          	blez	a2,141e4 <chacha20+0x382c>
   13f30:	00261613          	slli	a2,a2,0x2
   13f34:	00e60633          	add	a2,a2,a4
   13f38:	00c5ab83          	lw	s7,12(a1)
   13f3c:	00062c03          	lw	s8,0(a2)
   13f40:	01734333          	xor	t1,t1,s7
   13f44:	01837333          	and	t1,t1,s8
   13f48:	00652623          	sw	t1,12(a0)
   13f4c:	2980006f          	j	141e4 <chacha20+0x382c>
   13f50:	00d64c63          	blt	a2,a3,13f68 <chacha20+0x35b0>
   13f54:	0105ab83          	lw	s7,16(a1)
   13f58:	ffc60613          	addi	a2,a2,-4
   13f5c:	0173c3b3          	xor	t2,t2,s7
   13f60:	00752823          	sw	t2,16(a0)
   13f64:	0280006f          	j	13f8c <chacha20+0x35d4>
   13f68:	26c05e63          	blez	a2,141e4 <chacha20+0x382c>
   13f6c:	00261613          	slli	a2,a2,0x2
   13f70:	00e60633          	add	a2,a2,a4
   13f74:	0105ab83          	lw	s7,16(a1)
   13f78:	00062c03          	lw	s8,0(a2)
   13f7c:	0173c3b3          	xor	t2,t2,s7
   13f80:	0183f3b3          	and	t2,t2,s8
   13f84:	00752823          	sw	t2,16(a0)
   13f88:	25c0006f          	j	141e4 <chacha20+0x382c>
   13f8c:	00d64c63          	blt	a2,a3,13fa4 <chacha20+0x35ec>
   13f90:	0145ab83          	lw	s7,20(a1)
   13f94:	ffc60613          	addi	a2,a2,-4
   13f98:	017e4e33          	xor	t3,t3,s7
   13f9c:	01c52a23          	sw	t3,20(a0)
   13fa0:	0280006f          	j	13fc8 <chacha20+0x3610>
   13fa4:	24c05063          	blez	a2,141e4 <chacha20+0x382c>
   13fa8:	00261613          	slli	a2,a2,0x2
   13fac:	00e60633          	add	a2,a2,a4
   13fb0:	0145ab83          	lw	s7,20(a1)
   13fb4:	00062c03          	lw	s8,0(a2)
   13fb8:	017e4e33          	xor	t3,t3,s7
   13fbc:	018e7e33          	and	t3,t3,s8
   13fc0:	01c52a23          	sw	t3,20(a0)
   13fc4:	2200006f          	j	141e4 <chacha20+0x382c>
   13fc8:	00d64c63          	blt	a2,a3,13fe0 <chacha20+0x3628>
   13fcc:	0185ab83          	lw	s7,24(a1)
   13fd0:	ffc60613          	addi	a2,a2,-4
   13fd4:	017eceb3          	xor	t4,t4,s7
   13fd8:	01d52c23          	sw	t4,24(a0)
   13fdc:	0280006f          	j	14004 <chacha20+0x364c>
   13fe0:	20c05263          	blez	a2,141e4 <chacha20+0x382c>
   13fe4:	00261613          	slli	a2,a2,0x2
   13fe8:	00e60633          	add	a2,a2,a4
   13fec:	0185ab83          	lw	s7,24(a1)
   13ff0:	00062c03          	lw	s8,0(a2)
   13ff4:	017eceb3          	xor	t4,t4,s7
   13ff8:	018efeb3          	and	t4,t4,s8
   13ffc:	01d52c23          	sw	t4,24(a0)
   14000:	1e40006f          	j	141e4 <chacha20+0x382c>
   14004:	00d64c63          	blt	a2,a3,1401c <chacha20+0x3664>
   14008:	01c5ab83          	lw	s7,28(a1)
   1400c:	ffc60613          	addi	a2,a2,-4
   14010:	017f4f33          	xor	t5,t5,s7
   14014:	01e52e23          	sw	t5,28(a0)
   14018:	0280006f          	j	14040 <chacha20+0x3688>
   1401c:	1cc05463          	blez	a2,141e4 <chacha20+0x382c>
   14020:	00261613          	slli	a2,a2,0x2
   14024:	00e60633          	add	a2,a2,a4
   14028:	01c5ab83          	lw	s7,28(a1)
   1402c:	00062c03          	lw	s8,0(a2)
   14030:	017f4f33          	xor	t5,t5,s7
   14034:	018f7f33          	and	t5,t5,s8
   14038:	01e52e23          	sw	t5,28(a0)
   1403c:	1a80006f          	j	141e4 <chacha20+0x382c>
   14040:	00d64c63          	blt	a2,a3,14058 <chacha20+0x36a0>
   14044:	0205ab83          	lw	s7,32(a1)
   14048:	ffc60613          	addi	a2,a2,-4
   1404c:	017fcfb3          	xor	t6,t6,s7
   14050:	03f52023          	sw	t6,32(a0)
   14054:	0280006f          	j	1407c <chacha20+0x36c4>
   14058:	18c05663          	blez	a2,141e4 <chacha20+0x382c>
   1405c:	00261613          	slli	a2,a2,0x2
   14060:	00e60633          	add	a2,a2,a4
   14064:	0205ab83          	lw	s7,32(a1)
   14068:	00062c03          	lw	s8,0(a2)
   1406c:	017fcfb3          	xor	t6,t6,s7
   14070:	018fffb3          	and	t6,t6,s8
   14074:	03f52023          	sw	t6,32(a0)
   14078:	16c0006f          	j	141e4 <chacha20+0x382c>
   1407c:	00d64c63          	blt	a2,a3,14094 <chacha20+0x36dc>
   14080:	0245ab83          	lw	s7,36(a1)
   14084:	ffc60613          	addi	a2,a2,-4
   14088:	01744433          	xor	s0,s0,s7
   1408c:	02852223          	sw	s0,36(a0)
   14090:	0280006f          	j	140b8 <chacha20+0x3700>
   14094:	14c05863          	blez	a2,141e4 <chacha20+0x382c>
   14098:	00261613          	slli	a2,a2,0x2
   1409c:	00e60633          	add	a2,a2,a4
   140a0:	0245ab83          	lw	s7,36(a1)
   140a4:	00062c03          	lw	s8,0(a2)
   140a8:	01744433          	xor	s0,s0,s7
   140ac:	01847433          	and	s0,s0,s8
   140b0:	02852223          	sw	s0,36(a0)
   140b4:	1300006f          	j	141e4 <chacha20+0x382c>
   140b8:	00d64c63          	blt	a2,a3,140d0 <chacha20+0x3718>
   140bc:	0285ab83          	lw	s7,40(a1)
   140c0:	ffc60613          	addi	a2,a2,-4
   140c4:	0174c4b3          	xor	s1,s1,s7
   140c8:	02952423          	sw	s1,40(a0)
   140cc:	0280006f          	j	140f4 <chacha20+0x373c>
   140d0:	10c05a63          	blez	a2,141e4 <chacha20+0x382c>
   140d4:	00261613          	slli	a2,a2,0x2
   140d8:	00e60633          	add	a2,a2,a4
   140dc:	0285ab83          	lw	s7,40(a1)
   140e0:	00062c03          	lw	s8,0(a2)
   140e4:	0174c4b3          	xor	s1,s1,s7
   140e8:	0184f4b3          	and	s1,s1,s8
   140ec:	02952423          	sw	s1,40(a0)
   140f0:	0f40006f          	j	141e4 <chacha20+0x382c>
   140f4:	00d64c63          	blt	a2,a3,1410c <chacha20+0x3754>
   140f8:	02c5ab83          	lw	s7,44(a1)
   140fc:	ffc60613          	addi	a2,a2,-4
   14100:	01794933          	xor	s2,s2,s7
   14104:	03252623          	sw	s2,44(a0)
   14108:	0280006f          	j	14130 <chacha20+0x3778>
   1410c:	0cc05c63          	blez	a2,141e4 <chacha20+0x382c>
   14110:	00261613          	slli	a2,a2,0x2
   14114:	00e60633          	add	a2,a2,a4
   14118:	02c5ab83          	lw	s7,44(a1)
   1411c:	00062c03          	lw	s8,0(a2)
   14120:	01794933          	xor	s2,s2,s7
   14124:	01897933          	and	s2,s2,s8
   14128:	03252623          	sw	s2,44(a0)
   1412c:	0b80006f          	j	141e4 <chacha20+0x382c>
   14130:	00d64c63          	blt	a2,a3,14148 <chacha20+0x3790>
   14134:	0305ab83          	lw	s7,48(a1)
   14138:	ffc60613          	addi	a2,a2,-4
   1413c:	0179c9b3          	xor	s3,s3,s7
   14140:	03352823          	sw	s3,48(a0)
   14144:	0280006f          	j	1416c <chacha20+0x37b4>
   14148:	08c05e63          	blez	a2,141e4 <chacha20+0x382c>
   1414c:	00261613          	slli	a2,a2,0x2
   14150:	00e60633          	add	a2,a2,a4
   14154:	0305ab83          	lw	s7,48(a1)
   14158:	00062c03          	lw	s8,0(a2)
   1415c:	0179c9b3          	xor	s3,s3,s7
   14160:	0189f9b3          	and	s3,s3,s8
   14164:	03352823          	sw	s3,48(a0)
   14168:	07c0006f          	j	141e4 <chacha20+0x382c>
   1416c:	00d64c63          	blt	a2,a3,14184 <chacha20+0x37cc>
   14170:	0345ab83          	lw	s7,52(a1)
   14174:	ffc60613          	addi	a2,a2,-4
   14178:	017a4a33          	xor	s4,s4,s7
   1417c:	03452a23          	sw	s4,52(a0)
   14180:	0280006f          	j	141a8 <chacha20+0x37f0>
   14184:	06c05063          	blez	a2,141e4 <chacha20+0x382c>
   14188:	00261613          	slli	a2,a2,0x2
   1418c:	00e60633          	add	a2,a2,a4
   14190:	0345ab83          	lw	s7,52(a1)
   14194:	00062c03          	lw	s8,0(a2)
   14198:	017a4a33          	xor	s4,s4,s7
   1419c:	018a7a33          	and	s4,s4,s8
   141a0:	03452a23          	sw	s4,52(a0)
   141a4:	0400006f          	j	141e4 <chacha20+0x382c>
   141a8:	00d64c63          	blt	a2,a3,141c0 <chacha20+0x3808>
   141ac:	0385ab83          	lw	s7,56(a1)
   141b0:	ffc60613          	addi	a2,a2,-4
   141b4:	017acab3          	xor	s5,s5,s7
   141b8:	03552c23          	sw	s5,56(a0)
   141bc:	0280006f          	j	141e4 <chacha20+0x382c>
   141c0:	02c05263          	blez	a2,141e4 <chacha20+0x382c>
   141c4:	00261613          	slli	a2,a2,0x2
   141c8:	00e60633          	add	a2,a2,a4
   141cc:	0385ab83          	lw	s7,56(a1)
   141d0:	00062c03          	lw	s8,0(a2)
   141d4:	017acab3          	xor	s5,s5,s7
   141d8:	018afab3          	and	s5,s5,s8
   141dc:	03552c23          	sw	s5,56(a0)
   141e0:	0040006f          	j	141e4 <chacha20+0x382c>
   141e4:	00412403          	lw	s0,4(sp)
   141e8:	00812483          	lw	s1,8(sp)
   141ec:	00c12903          	lw	s2,12(sp)
   141f0:	01012983          	lw	s3,16(sp)
   141f4:	01412a03          	lw	s4,20(sp)
   141f8:	01812a83          	lw	s5,24(sp)
   141fc:	01c12b03          	lw	s6,28(sp)
   14200:	02012b83          	lw	s7,32(sp)
   14204:	02412c03          	lw	s8,36(sp)
   14208:	02812c83          	lw	s9,40(sp)
   1420c:	02c10113          	addi	sp,sp,44
   14210:	00008067          	ret

00014214 <lc3370>:
   14214:	fe810113          	addi	sp,sp,-24
   14218:	00812a23          	sw	s0,20(sp)
   1421c:	00912823          	sw	s1,16(sp)
   14220:	01212623          	sw	s2,12(sp)
   14224:	01312423          	sw	s3,8(sp)
   14228:	01412223          	sw	s4,4(sp)
   1422c:	00112023          	sw	ra,0(sp)
   14230:	00000417          	auipc	s0,0x0
   14234:	72040413          	addi	s0,s0,1824 # 14950 <input>
   14238:	00000497          	auipc	s1,0x0
   1423c:	72448493          	addi	s1,s1,1828 # 1495c <ans>
   14240:	0040006f          	j	14244 <main_for>

00014244 <main_for>:
   14244:	00040e13          	mv	t3,s0
   14248:	000e2503          	lw	a0,0(t3)
   1424c:	ffc10113          	addi	sp,sp,-4
   14250:	00112023          	sw	ra,0(sp)
   14254:	2ec000ef          	jal	14540 <smallestNumber>
   14258:	00050933          	add	s2,a0,zero
   1425c:	00440e13          	addi	t3,s0,4
   14260:	000e2503          	lw	a0,0(t3)
   14264:	2dc000ef          	jal	14540 <smallestNumber>
   14268:	000509b3          	add	s3,a0,zero
   1426c:	00840e13          	addi	t3,s0,8
   14270:	000e2503          	lw	a0,0(t3)
   14274:	2cc000ef          	jal	14540 <smallestNumber>
   14278:	00050a33          	add	s4,a0,zero
   1427c:	00012083          	lw	ra,0(sp)
   14280:	00410113          	addi	sp,sp,4
   14284:	0040006f          	j	14288 <print_result_0>

00014288 <print_result_0>:
   14288:	00100513          	li	a0,1
   1428c:	00000597          	auipc	a1,0x0
   14290:	6dc58593          	addi	a1,a1,1756 # 14968 <output_str>
   14294:	00900613          	li	a2,9
   14298:	04000893          	li	a7,64
   1429c:	00000073          	ecall
   142a0:	00090293          	mv	t0,s2
   142a4:	00000597          	auipc	a1,0x0
   142a8:	70458593          	addi	a1,a1,1796 # 149a8 <buffer>
   142ac:	318000ef          	jal	145c4 <num_to_str>
   142b0:	00100513          	li	a0,1
   142b4:	00000597          	auipc	a1,0x0
   142b8:	6f458593          	addi	a1,a1,1780 # 149a8 <buffer>
   142bc:	00c00613          	li	a2,12
   142c0:	04000893          	li	a7,64
   142c4:	00000073          	ecall
   142c8:	00100513          	li	a0,1
   142cc:	00000597          	auipc	a1,0x0
   142d0:	6a658593          	addi	a1,a1,1702 # 14972 <answer_str>
   142d4:	00b00613          	li	a2,11
   142d8:	04000893          	li	a7,64
   142dc:	00000073          	ecall
   142e0:	00048393          	mv	t2,s1
   142e4:	0003a503          	lw	a0,0(t2)
   142e8:	00050293          	mv	t0,a0
   142ec:	00000597          	auipc	a1,0x0
   142f0:	6bc58593          	addi	a1,a1,1724 # 149a8 <buffer>
   142f4:	2d0000ef          	jal	145c4 <num_to_str>
   142f8:	00048393          	mv	t2,s1
   142fc:	0003a383          	lw	t2,0(t2)
   14300:	00100513          	li	a0,1
   14304:	00000597          	auipc	a1,0x0
   14308:	6a458593          	addi	a1,a1,1700 # 149a8 <buffer>
   1430c:	00c00613          	li	a2,12
   14310:	04000893          	li	a7,64
   14314:	00000073          	ecall
   14318:	00100513          	li	a0,1
   1431c:	00000597          	auipc	a1,0x0
   14320:	66258593          	addi	a1,a1,1634 # 1497e <endline_str>
   14324:	00100613          	li	a2,1
   14328:	04000893          	li	a7,64
   1432c:	00000073          	ecall
   14330:	00790463          	beq	s2,t2,14338 <print_true_0>
   14334:	0200006f          	j	14354 <print_false_0>

00014338 <print_true_0>:
   14338:	00100513          	li	a0,1
   1433c:	00000597          	auipc	a1,0x0
   14340:	64458593          	addi	a1,a1,1604 # 14980 <true_str>
   14344:	00500613          	li	a2,5
   14348:	04000893          	li	a7,64
   1434c:	00000073          	ecall
   14350:	0200006f          	j	14370 <print_result_1>

00014354 <print_false_0>:
   14354:	00100513          	li	a0,1
   14358:	00000597          	auipc	a1,0x0
   1435c:	62e58593          	addi	a1,a1,1582 # 14986 <false_str>
   14360:	00600613          	li	a2,6
   14364:	04000893          	li	a7,64
   14368:	00000073          	ecall
   1436c:	0040006f          	j	14370 <print_result_1>

00014370 <print_result_1>:
   14370:	00100513          	li	a0,1
   14374:	00000597          	auipc	a1,0x0
   14378:	5f458593          	addi	a1,a1,1524 # 14968 <output_str>
   1437c:	00900613          	li	a2,9
   14380:	04000893          	li	a7,64
   14384:	00000073          	ecall
   14388:	00098293          	mv	t0,s3
   1438c:	00000597          	auipc	a1,0x0
   14390:	61c58593          	addi	a1,a1,1564 # 149a8 <buffer>
   14394:	230000ef          	jal	145c4 <num_to_str>
   14398:	00100513          	li	a0,1
   1439c:	00000597          	auipc	a1,0x0
   143a0:	60c58593          	addi	a1,a1,1548 # 149a8 <buffer>
   143a4:	00c00613          	li	a2,12
   143a8:	04000893          	li	a7,64
   143ac:	00000073          	ecall
   143b0:	00100513          	li	a0,1
   143b4:	00000597          	auipc	a1,0x0
   143b8:	5be58593          	addi	a1,a1,1470 # 14972 <answer_str>
   143bc:	00b00613          	li	a2,11
   143c0:	04000893          	li	a7,64
   143c4:	00000073          	ecall
   143c8:	00448393          	addi	t2,s1,4
   143cc:	0003a503          	lw	a0,0(t2)
   143d0:	00050293          	mv	t0,a0
   143d4:	00000597          	auipc	a1,0x0
   143d8:	5d458593          	addi	a1,a1,1492 # 149a8 <buffer>
   143dc:	1e8000ef          	jal	145c4 <num_to_str>
   143e0:	00448393          	addi	t2,s1,4
   143e4:	0003a383          	lw	t2,0(t2)
   143e8:	00100513          	li	a0,1
   143ec:	00000597          	auipc	a1,0x0
   143f0:	5bc58593          	addi	a1,a1,1468 # 149a8 <buffer>
   143f4:	00c00613          	li	a2,12
   143f8:	04000893          	li	a7,64
   143fc:	00000073          	ecall
   14400:	00100513          	li	a0,1
   14404:	00000597          	auipc	a1,0x0
   14408:	57a58593          	addi	a1,a1,1402 # 1497e <endline_str>
   1440c:	00100613          	li	a2,1
   14410:	04000893          	li	a7,64
   14414:	00000073          	ecall
   14418:	00798463          	beq	s3,t2,14420 <print_true_1>
   1441c:	0200006f          	j	1443c <print_false_1>

00014420 <print_true_1>:
   14420:	00100513          	li	a0,1
   14424:	00000597          	auipc	a1,0x0
   14428:	55c58593          	addi	a1,a1,1372 # 14980 <true_str>
   1442c:	00500613          	li	a2,5
   14430:	04000893          	li	a7,64
   14434:	00000073          	ecall
   14438:	0200006f          	j	14458 <print_result_2>

0001443c <print_false_1>:
   1443c:	00100513          	li	a0,1
   14440:	00000597          	auipc	a1,0x0
   14444:	54658593          	addi	a1,a1,1350 # 14986 <false_str>
   14448:	00600613          	li	a2,6
   1444c:	04000893          	li	a7,64
   14450:	00000073          	ecall
   14454:	0040006f          	j	14458 <print_result_2>

00014458 <print_result_2>:
   14458:	00100513          	li	a0,1
   1445c:	00000597          	auipc	a1,0x0
   14460:	50c58593          	addi	a1,a1,1292 # 14968 <output_str>
   14464:	00900613          	li	a2,9
   14468:	04000893          	li	a7,64
   1446c:	00000073          	ecall
   14470:	000a0293          	mv	t0,s4
   14474:	00000597          	auipc	a1,0x0
   14478:	53458593          	addi	a1,a1,1332 # 149a8 <buffer>
   1447c:	148000ef          	jal	145c4 <num_to_str>
   14480:	00100513          	li	a0,1
   14484:	00000597          	auipc	a1,0x0
   14488:	52458593          	addi	a1,a1,1316 # 149a8 <buffer>
   1448c:	00c00613          	li	a2,12
   14490:	04000893          	li	a7,64
   14494:	00000073          	ecall
   14498:	00100513          	li	a0,1
   1449c:	00000597          	auipc	a1,0x0
   144a0:	4d658593          	addi	a1,a1,1238 # 14972 <answer_str>
   144a4:	00b00613          	li	a2,11
   144a8:	04000893          	li	a7,64
   144ac:	00000073          	ecall
   144b0:	00848393          	addi	t2,s1,8
   144b4:	0003a503          	lw	a0,0(t2)
   144b8:	00050293          	mv	t0,a0
   144bc:	00000597          	auipc	a1,0x0
   144c0:	4ec58593          	addi	a1,a1,1260 # 149a8 <buffer>
   144c4:	100000ef          	jal	145c4 <num_to_str>
   144c8:	00848393          	addi	t2,s1,8
   144cc:	0003a383          	lw	t2,0(t2)
   144d0:	00100513          	li	a0,1
   144d4:	00000597          	auipc	a1,0x0
   144d8:	4d458593          	addi	a1,a1,1236 # 149a8 <buffer>
   144dc:	00c00613          	li	a2,12
   144e0:	04000893          	li	a7,64
   144e4:	00000073          	ecall
   144e8:	00100513          	li	a0,1
   144ec:	00000597          	auipc	a1,0x0
   144f0:	49258593          	addi	a1,a1,1170 # 1497e <endline_str>
   144f4:	00100613          	li	a2,1
   144f8:	04000893          	li	a7,64
   144fc:	00000073          	ecall
   14500:	007a0463          	beq	s4,t2,14508 <print_true_2>
   14504:	0200006f          	j	14524 <print_false_2>

00014508 <print_true_2>:
   14508:	00100513          	li	a0,1
   1450c:	00000597          	auipc	a1,0x0
   14510:	47458593          	addi	a1,a1,1140 # 14980 <true_str>
   14514:	00500613          	li	a2,5
   14518:	04000893          	li	a7,64
   1451c:	00000073          	ecall
   14520:	1040006f          	j	14624 <main_exit>

00014524 <print_false_2>:
   14524:	00100513          	li	a0,1
   14528:	00000597          	auipc	a1,0x0
   1452c:	45e58593          	addi	a1,a1,1118 # 14986 <false_str>
   14530:	00600613          	li	a2,6
   14534:	04000893          	li	a7,64
   14538:	00000073          	ecall
   1453c:	0e80006f          	j	14624 <main_exit>

00014540 <smallestNumber>:
   14540:	ff410113          	addi	sp,sp,-12
   14544:	00112423          	sw	ra,8(sp)
   14548:	00512223          	sw	t0,4(sp)
   1454c:	00612023          	sw	t1,0(sp)
   14550:	ff810113          	addi	sp,sp,-8
   14554:	00112223          	sw	ra,4(sp)
   14558:	00a12023          	sw	a0,0(sp)
   1455c:	038000ef          	jal	14594 <clz>
   14560:	02000293          	li	t0,32
   14564:	00100313          	li	t1,1
   14568:	40a282b3          	sub	t0,t0,a0
   1456c:	00012503          	lw	a0,0(sp)
   14570:	00412083          	lw	ra,4(sp)
   14574:	00810113          	addi	sp,sp,8
   14578:	00531333          	sll	t1,t1,t0
   1457c:	fff30513          	addi	a0,t1,-1
   14580:	00012303          	lw	t1,0(sp)
   14584:	00412283          	lw	t0,4(sp)
   14588:	00812083          	lw	ra,8(sp)
   1458c:	00c10113          	addi	sp,sp,12
   14590:	00008067          	ret

00014594 <clz>:
   14594:	02000293          	li	t0,32
   14598:	01000313          	li	t1,16
   1459c:	0040006f          	j	145a0 <clz_whileLoop>

000145a0 <clz_whileLoop>:
   145a0:	006553b3          	srl	t2,a0,t1
   145a4:	00038863          	beqz	t2,145b4 <shift_right_1bit>
   145a8:	406282b3          	sub	t0,t0,t1
   145ac:	00038513          	mv	a0,t2
   145b0:	0040006f          	j	145b4 <shift_right_1bit>

000145b4 <shift_right_1bit>:
   145b4:	00135313          	srli	t1,t1,0x1
   145b8:	fe0314e3          	bnez	t1,145a0 <clz_whileLoop>
   145bc:	40a28533          	sub	a0,t0,a0
   145c0:	00008067          	ret

000145c4 <num_to_str>:
   145c4:	00b58313          	addi	t1,a1,11
   145c8:	04028063          	beqz	t0,14608 <num_to_str_zero_case>
   145cc:	0040006f          	j	145d0 <num_to_str_loop>

000145d0 <num_to_str_loop>:
   145d0:	00a00393          	li	t2,10
   145d4:	00000e13          	li	t3,0
   145d8:	0040006f          	j	145dc <num_to_str_div10>

000145dc <num_to_str_div10>:
   145dc:	0072d463          	bge	t0,t2,145e4 <num_to_str_sub10>
   145e0:	0100006f          	j	145f0 <num_to_str_div_done>

000145e4 <num_to_str_sub10>:
   145e4:	407282b3          	sub	t0,t0,t2
   145e8:	001e0e13          	addi	t3,t3,1
   145ec:	ff1ff06f          	j	145dc <num_to_str_div10>

000145f0 <num_to_str_div_done>:
   145f0:	03028293          	addi	t0,t0,48
   145f4:	00530023          	sb	t0,0(t1)
   145f8:	000e0293          	mv	t0,t3
   145fc:	fff30313          	addi	t1,t1,-1
   14600:	fc0298e3          	bnez	t0,145d0 <num_to_str_loop>
   14604:	0140006f          	j	14618 <num_to_str_done>

00014608 <num_to_str_zero_case>:
   14608:	03000e13          	li	t3,48
   1460c:	01c30023          	sb	t3,0(t1)
   14610:	fff30313          	addi	t1,t1,-1
   14614:	0040006f          	j	14618 <num_to_str_done>

00014618 <num_to_str_done>:
   14618:	00030023          	sb	zero,0(t1)
   1461c:	fff30313          	addi	t1,t1,-1
   14620:	00008067          	ret

00014624 <main_exit>:
   14624:	01412403          	lw	s0,20(sp)
   14628:	01012483          	lw	s1,16(sp)
   1462c:	00c12903          	lw	s2,12(sp)
   14630:	00812983          	lw	s3,8(sp)
   14634:	00412a03          	lw	s4,4(sp)
   14638:	00012083          	lw	ra,0(sp)
   1463c:	01810113          	addi	sp,sp,24
   14640:	00008067          	ret

00014644 <hanoi>:
   14644:	fdc10113          	addi	sp,sp,-36
   14648:	00812023          	sw	s0,0(sp)
   1464c:	00912223          	sw	s1,4(sp)
   14650:	01212423          	sw	s2,8(sp)
   14654:	01312623          	sw	s3,12(sp)
   14658:	01412823          	sw	s4,16(sp)
   1465c:	01500293          	li	t0,21
   14660:	00512a23          	sw	t0,20(sp)
   14664:	00512c23          	sw	t0,24(sp)
   14668:	00512e23          	sw	t0,28(sp)
   1466c:	02112023          	sw	ra,32(sp)
   14670:	00012a23          	sw	zero,20(sp)
   14674:	00012c23          	sw	zero,24(sp)
   14678:	00012e23          	sw	zero,28(sp)
   1467c:	00100413          	li	s0,1

00014680 <game_loop>:
   14680:	00800293          	li	t0,8
   14684:	16540a63          	beq	s0,t0,147f8 <finish_game>
   14688:	00145293          	srli	t0,s0,0x1
   1468c:	00544333          	xor	t1,s0,t0
   14690:	fff40393          	addi	t2,s0,-1
   14694:	0013de13          	srli	t3,t2,0x1
   14698:	01c3c3b3          	xor	t2,t2,t3
   1469c:	007342b3          	xor	t0,t1,t2
   146a0:	00000493          	li	s1,0
   146a4:	0012f313          	andi	t1,t0,1
   146a8:	00031a63          	bnez	t1,146bc <disk_found>
   146ac:	00100493          	li	s1,1
   146b0:	0022f313          	andi	t1,t0,2
   146b4:	00031463          	bnez	t1,146bc <disk_found>
   146b8:	00200493          	li	s1,2

000146bc <disk_found>:
   146bc:	0052ff13          	andi	t5,t0,5
   146c0:	00500f93          	li	t6,5
   146c4:	01ff0463          	beq	t5,t6,146cc <continue_move>
   146c8:	0040006f          	j	146cc <continue_move>

000146cc <continue_move>:
   146cc:	00249293          	slli	t0,s1,0x2
   146d0:	01428293          	addi	t0,t0,20
   146d4:	005102b3          	add	t0,sp,t0
   146d8:	0002a903          	lw	s2,0(t0)
   146dc:	00049c63          	bnez	s1,146f4 <handle_large>
   146e0:	00290993          	addi	s3,s2,2
   146e4:	00300313          	li	t1,3
   146e8:	0069ce63          	blt	s3,t1,14704 <display_move>
   146ec:	406989b3          	sub	s3,s3,t1
   146f0:	0140006f          	j	14704 <display_move>

000146f4 <handle_large>:
   146f4:	01412303          	lw	t1,20(sp)
   146f8:	00300993          	li	s3,3
   146fc:	412989b3          	sub	s3,s3,s2
   14700:	406989b3          	sub	s3,s3,t1

00014704 <display_move>:
   14704:	00000a17          	auipc	s4,0x0
   14708:	289a0a13          	addi	s4,s4,649 # 1498d <obdata>
   1470c:	012a02b3          	add	t0,s4,s2
   14710:	0002c583          	lbu	a1,0(t0)
   14714:	06f00313          	li	t1,111
   14718:	0065c5b3          	xor	a1,a1,t1
   1471c:	fee58593          	addi	a1,a1,-18
   14720:	013a03b3          	add	t2,s4,s3
   14724:	0003c603          	lbu	a2,0(t2)
   14728:	00664633          	xor	a2,a2,t1
   1472c:	fee60613          	addi	a2,a2,-18
   14730:	00058f13          	mv	t5,a1
   14734:	00060f93          	mv	t6,a2
   14738:	00100513          	li	a0,1
   1473c:	00000597          	auipc	a1,0x0
   14740:	25458593          	addi	a1,a1,596 # 14990 <str1>
   14744:	00a00613          	li	a2,10
   14748:	04000893          	li	a7,64
   1474c:	00000073          	ecall
   14750:	00100513          	li	a0,1
   14754:	03148593          	addi	a1,s1,49
   14758:	00b58023          	sb	a1,0(a1)
   1475c:	00100613          	li	a2,1
   14760:	04000893          	li	a7,64
   14764:	00000073          	ecall
   14768:	00100513          	li	a0,1
   1476c:	00000597          	auipc	a1,0x0
   14770:	22f58593          	addi	a1,a1,559 # 1499b <str2>
   14774:	00600613          	li	a2,6
   14778:	04000893          	li	a7,64
   1477c:	00000073          	ecall
   14780:	00100513          	li	a0,1
   14784:	000f0593          	mv	a1,t5
   14788:	00b58023          	sb	a1,0(a1)
   1478c:	00100613          	li	a2,1
   14790:	04000893          	li	a7,64
   14794:	00000073          	ecall
   14798:	00100513          	li	a0,1
   1479c:	00000597          	auipc	a1,0x0
   147a0:	20658593          	addi	a1,a1,518 # 149a2 <str3>
   147a4:	00400613          	li	a2,4
   147a8:	04000893          	li	a7,64
   147ac:	00000073          	ecall
   147b0:	00100513          	li	a0,1
   147b4:	000f8593          	mv	a1,t6
   147b8:	00b58023          	sb	a1,0(a1)
   147bc:	00100613          	li	a2,1
   147c0:	04000893          	li	a7,64
   147c4:	00000073          	ecall
   147c8:	00100513          	li	a0,1
   147cc:	00a00593          	li	a1,10
   147d0:	00b58023          	sb	a1,0(a1)
   147d4:	00100613          	li	a2,1
   147d8:	04000893          	li	a7,64
   147dc:	00000073          	ecall
   147e0:	00249293          	slli	t0,s1,0x2
   147e4:	01428293          	addi	t0,t0,20
   147e8:	005102b3          	add	t0,sp,t0
   147ec:	0132a023          	sw	s3,0(t0)
   147f0:	00140413          	addi	s0,s0,1
   147f4:	e8dff06f          	j	14680 <game_loop>

000147f8 <finish_game>:
   147f8:	00012403          	lw	s0,0(sp)
   147fc:	00412483          	lw	s1,4(sp)
   14800:	00812903          	lw	s2,8(sp)
   14804:	00c12983          	lw	s3,12(sp)
   14808:	01012a03          	lw	s4,16(sp)
   1480c:	02012083          	lw	ra,32(sp)
   14810:	02410113          	addi	sp,sp,36
   14814:	00008067          	ret
